ARM GAS  C:\Users\0.0\AppData\Local\Temp\cceJoyYc.s 			page 1


   1              		.cpu cortex-m0
   2              		.arch armv6s-m
   3              		.fpu softvfp
   4              		.eabi_attribute 20, 1
   5              		.eabi_attribute 21, 1
   6              		.eabi_attribute 23, 3
   7              		.eabi_attribute 24, 1
   8              		.eabi_attribute 25, 1
   9              		.eabi_attribute 26, 1
  10              		.eabi_attribute 30, 1
  11              		.eabi_attribute 34, 0
  12              		.eabi_attribute 18, 4
  13              		.file	"stm32f0xx_hal_rcc.c"
  14              		.text
  15              	.Ltext0:
  16              		.cfi_sections	.debug_frame
  17              		.file 1 "Drivers/STM32F0xx_HAL_Driver/Src/stm32f0xx_hal_rcc.c"
  18              		.section	.text.HAL_RCC_DeInit,"ax",%progbits
  19              		.align	1
  20              		.global	HAL_RCC_DeInit
  21              		.syntax unified
  22              		.code	16
  23              		.thumb_func
  25              	HAL_RCC_DeInit:
  26              	.LFB37:
   1:Drivers/STM32F0xx_HAL_Driver/Src/stm32f0xx_hal_rcc.c **** /**
   2:Drivers/STM32F0xx_HAL_Driver/Src/stm32f0xx_hal_rcc.c ****   ******************************************************************************
   3:Drivers/STM32F0xx_HAL_Driver/Src/stm32f0xx_hal_rcc.c ****   * @file    stm32f0xx_hal_rcc.c
   4:Drivers/STM32F0xx_HAL_Driver/Src/stm32f0xx_hal_rcc.c ****   * @author  MCD Application Team
   5:Drivers/STM32F0xx_HAL_Driver/Src/stm32f0xx_hal_rcc.c ****   * @brief   RCC HAL module driver.
   6:Drivers/STM32F0xx_HAL_Driver/Src/stm32f0xx_hal_rcc.c ****   *          This file provides firmware functions to manage the following 
   7:Drivers/STM32F0xx_HAL_Driver/Src/stm32f0xx_hal_rcc.c ****   *          functionalities of the Reset and Clock Control (RCC) peripheral:
   8:Drivers/STM32F0xx_HAL_Driver/Src/stm32f0xx_hal_rcc.c ****   *           + Initialization and de-initialization functions
   9:Drivers/STM32F0xx_HAL_Driver/Src/stm32f0xx_hal_rcc.c ****   *           + Peripheral Control functions
  10:Drivers/STM32F0xx_HAL_Driver/Src/stm32f0xx_hal_rcc.c ****   *       
  11:Drivers/STM32F0xx_HAL_Driver/Src/stm32f0xx_hal_rcc.c ****   @verbatim                
  12:Drivers/STM32F0xx_HAL_Driver/Src/stm32f0xx_hal_rcc.c ****   ==============================================================================
  13:Drivers/STM32F0xx_HAL_Driver/Src/stm32f0xx_hal_rcc.c ****                       ##### RCC specific features #####
  14:Drivers/STM32F0xx_HAL_Driver/Src/stm32f0xx_hal_rcc.c ****   ==============================================================================
  15:Drivers/STM32F0xx_HAL_Driver/Src/stm32f0xx_hal_rcc.c ****     [..]  
  16:Drivers/STM32F0xx_HAL_Driver/Src/stm32f0xx_hal_rcc.c ****       After reset the device is running from Internal High Speed oscillator
  17:Drivers/STM32F0xx_HAL_Driver/Src/stm32f0xx_hal_rcc.c ****       (HSI 8MHz) with Flash 0 wait state, Flash prefetch buffer is enabled, 
  18:Drivers/STM32F0xx_HAL_Driver/Src/stm32f0xx_hal_rcc.c ****       and all peripherals are off except internal SRAM, Flash and JTAG.
  19:Drivers/STM32F0xx_HAL_Driver/Src/stm32f0xx_hal_rcc.c ****       (+) There is no prescaler on High speed (AHB) and Low speed (APB) buses;
  20:Drivers/STM32F0xx_HAL_Driver/Src/stm32f0xx_hal_rcc.c ****           all peripherals mapped on these buses are running at HSI speed.
  21:Drivers/STM32F0xx_HAL_Driver/Src/stm32f0xx_hal_rcc.c ****       (+) The clock for all peripherals is switched off, except the SRAM and FLASH.
  22:Drivers/STM32F0xx_HAL_Driver/Src/stm32f0xx_hal_rcc.c ****       (+) All GPIOs are in input floating state, except the JTAG pins which
  23:Drivers/STM32F0xx_HAL_Driver/Src/stm32f0xx_hal_rcc.c ****           are assigned to be used for debug purpose.
  24:Drivers/STM32F0xx_HAL_Driver/Src/stm32f0xx_hal_rcc.c ****     [..] Once the device started from reset, the user application has to:
  25:Drivers/STM32F0xx_HAL_Driver/Src/stm32f0xx_hal_rcc.c ****       (+) Configure the clock source to be used to drive the System clock
  26:Drivers/STM32F0xx_HAL_Driver/Src/stm32f0xx_hal_rcc.c ****           (if the application needs higher frequency/performance)
  27:Drivers/STM32F0xx_HAL_Driver/Src/stm32f0xx_hal_rcc.c ****       (+) Configure the System clock frequency and Flash settings  
  28:Drivers/STM32F0xx_HAL_Driver/Src/stm32f0xx_hal_rcc.c ****       (+) Configure the AHB and APB buses prescalers
  29:Drivers/STM32F0xx_HAL_Driver/Src/stm32f0xx_hal_rcc.c ****       (+) Enable the clock for the peripheral(s) to be used
  30:Drivers/STM32F0xx_HAL_Driver/Src/stm32f0xx_hal_rcc.c ****       (+) Configure the clock source(s) for peripherals whose clocks are not
  31:Drivers/STM32F0xx_HAL_Driver/Src/stm32f0xx_hal_rcc.c ****           derived from the System clock (RTC, ADC, I2C, USART, TIM, USB FS, etc..)
  32:Drivers/STM32F0xx_HAL_Driver/Src/stm32f0xx_hal_rcc.c **** 
ARM GAS  C:\Users\0.0\AppData\Local\Temp\cceJoyYc.s 			page 2


  33:Drivers/STM32F0xx_HAL_Driver/Src/stm32f0xx_hal_rcc.c ****                       ##### RCC Limitations #####
  34:Drivers/STM32F0xx_HAL_Driver/Src/stm32f0xx_hal_rcc.c ****   ==============================================================================
  35:Drivers/STM32F0xx_HAL_Driver/Src/stm32f0xx_hal_rcc.c ****     [..]  
  36:Drivers/STM32F0xx_HAL_Driver/Src/stm32f0xx_hal_rcc.c ****       A delay between an RCC peripheral clock enable and the effective peripheral 
  37:Drivers/STM32F0xx_HAL_Driver/Src/stm32f0xx_hal_rcc.c ****       enabling should be taken into account in order to manage the peripheral read/write 
  38:Drivers/STM32F0xx_HAL_Driver/Src/stm32f0xx_hal_rcc.c ****       from/to registers.
  39:Drivers/STM32F0xx_HAL_Driver/Src/stm32f0xx_hal_rcc.c ****       (+) This delay depends on the peripheral mapping.
  40:Drivers/STM32F0xx_HAL_Driver/Src/stm32f0xx_hal_rcc.c ****         (++) AHB & APB peripherals, 1 dummy read is necessary
  41:Drivers/STM32F0xx_HAL_Driver/Src/stm32f0xx_hal_rcc.c **** 
  42:Drivers/STM32F0xx_HAL_Driver/Src/stm32f0xx_hal_rcc.c ****     [..]  
  43:Drivers/STM32F0xx_HAL_Driver/Src/stm32f0xx_hal_rcc.c ****       Workarounds:
  44:Drivers/STM32F0xx_HAL_Driver/Src/stm32f0xx_hal_rcc.c ****       (#) For AHB & APB peripherals, a dummy read to the peripheral register has been
  45:Drivers/STM32F0xx_HAL_Driver/Src/stm32f0xx_hal_rcc.c ****           inserted in each __HAL_RCC_PPP_CLK_ENABLE() macro.
  46:Drivers/STM32F0xx_HAL_Driver/Src/stm32f0xx_hal_rcc.c **** 
  47:Drivers/STM32F0xx_HAL_Driver/Src/stm32f0xx_hal_rcc.c ****   @endverbatim
  48:Drivers/STM32F0xx_HAL_Driver/Src/stm32f0xx_hal_rcc.c ****   ******************************************************************************
  49:Drivers/STM32F0xx_HAL_Driver/Src/stm32f0xx_hal_rcc.c ****   * @attention
  50:Drivers/STM32F0xx_HAL_Driver/Src/stm32f0xx_hal_rcc.c ****   *
  51:Drivers/STM32F0xx_HAL_Driver/Src/stm32f0xx_hal_rcc.c ****   * <h2><center>&copy; COPYRIGHT(c) 2016 STMicroelectronics</center></h2>
  52:Drivers/STM32F0xx_HAL_Driver/Src/stm32f0xx_hal_rcc.c ****   *
  53:Drivers/STM32F0xx_HAL_Driver/Src/stm32f0xx_hal_rcc.c ****   * Redistribution and use in source and binary forms, with or without modification,
  54:Drivers/STM32F0xx_HAL_Driver/Src/stm32f0xx_hal_rcc.c ****   * are permitted provided that the following conditions are met:
  55:Drivers/STM32F0xx_HAL_Driver/Src/stm32f0xx_hal_rcc.c ****   *   1. Redistributions of source code must retain the above copyright notice,
  56:Drivers/STM32F0xx_HAL_Driver/Src/stm32f0xx_hal_rcc.c ****   *      this list of conditions and the following disclaimer.
  57:Drivers/STM32F0xx_HAL_Driver/Src/stm32f0xx_hal_rcc.c ****   *   2. Redistributions in binary form must reproduce the above copyright notice,
  58:Drivers/STM32F0xx_HAL_Driver/Src/stm32f0xx_hal_rcc.c ****   *      this list of conditions and the following disclaimer in the documentation
  59:Drivers/STM32F0xx_HAL_Driver/Src/stm32f0xx_hal_rcc.c ****   *      and/or other materials provided with the distribution.
  60:Drivers/STM32F0xx_HAL_Driver/Src/stm32f0xx_hal_rcc.c ****   *   3. Neither the name of STMicroelectronics nor the names of its contributors
  61:Drivers/STM32F0xx_HAL_Driver/Src/stm32f0xx_hal_rcc.c ****   *      may be used to endorse or promote products derived from this software
  62:Drivers/STM32F0xx_HAL_Driver/Src/stm32f0xx_hal_rcc.c ****   *      without specific prior written permission.
  63:Drivers/STM32F0xx_HAL_Driver/Src/stm32f0xx_hal_rcc.c ****   *
  64:Drivers/STM32F0xx_HAL_Driver/Src/stm32f0xx_hal_rcc.c ****   * THIS SOFTWARE IS PROVIDED BY THE COPYRIGHT HOLDERS AND CONTRIBUTORS "AS IS"
  65:Drivers/STM32F0xx_HAL_Driver/Src/stm32f0xx_hal_rcc.c ****   * AND ANY EXPRESS OR IMPLIED WARRANTIES, INCLUDING, BUT NOT LIMITED TO, THE
  66:Drivers/STM32F0xx_HAL_Driver/Src/stm32f0xx_hal_rcc.c ****   * IMPLIED WARRANTIES OF MERCHANTABILITY AND FITNESS FOR A PARTICULAR PURPOSE ARE
  67:Drivers/STM32F0xx_HAL_Driver/Src/stm32f0xx_hal_rcc.c ****   * DISCLAIMED. IN NO EVENT SHALL THE COPYRIGHT HOLDER OR CONTRIBUTORS BE LIABLE
  68:Drivers/STM32F0xx_HAL_Driver/Src/stm32f0xx_hal_rcc.c ****   * FOR ANY DIRECT, INDIRECT, INCIDENTAL, SPECIAL, EXEMPLARY, OR CONSEQUENTIAL
  69:Drivers/STM32F0xx_HAL_Driver/Src/stm32f0xx_hal_rcc.c ****   * DAMAGES (INCLUDING, BUT NOT LIMITED TO, PROCUREMENT OF SUBSTITUTE GOODS OR
  70:Drivers/STM32F0xx_HAL_Driver/Src/stm32f0xx_hal_rcc.c ****   * SERVICES; LOSS OF USE, DATA, OR PROFITS; OR BUSINESS INTERRUPTION) HOWEVER
  71:Drivers/STM32F0xx_HAL_Driver/Src/stm32f0xx_hal_rcc.c ****   * CAUSED AND ON ANY THEORY OF LIABILITY, WHETHER IN CONTRACT, STRICT LIABILITY,
  72:Drivers/STM32F0xx_HAL_Driver/Src/stm32f0xx_hal_rcc.c ****   * OR TORT (INCLUDING NEGLIGENCE OR OTHERWISE) ARISING IN ANY WAY OUT OF THE USE
  73:Drivers/STM32F0xx_HAL_Driver/Src/stm32f0xx_hal_rcc.c ****   * OF THIS SOFTWARE, EVEN IF ADVISED OF THE POSSIBILITY OF SUCH DAMAGE.
  74:Drivers/STM32F0xx_HAL_Driver/Src/stm32f0xx_hal_rcc.c ****   *
  75:Drivers/STM32F0xx_HAL_Driver/Src/stm32f0xx_hal_rcc.c ****   ******************************************************************************  
  76:Drivers/STM32F0xx_HAL_Driver/Src/stm32f0xx_hal_rcc.c **** */
  77:Drivers/STM32F0xx_HAL_Driver/Src/stm32f0xx_hal_rcc.c **** 
  78:Drivers/STM32F0xx_HAL_Driver/Src/stm32f0xx_hal_rcc.c **** /* Includes ------------------------------------------------------------------*/
  79:Drivers/STM32F0xx_HAL_Driver/Src/stm32f0xx_hal_rcc.c **** #include "stm32f0xx_hal.h"
  80:Drivers/STM32F0xx_HAL_Driver/Src/stm32f0xx_hal_rcc.c **** 
  81:Drivers/STM32F0xx_HAL_Driver/Src/stm32f0xx_hal_rcc.c **** /** @addtogroup STM32F0xx_HAL_Driver
  82:Drivers/STM32F0xx_HAL_Driver/Src/stm32f0xx_hal_rcc.c ****   * @{
  83:Drivers/STM32F0xx_HAL_Driver/Src/stm32f0xx_hal_rcc.c ****   */
  84:Drivers/STM32F0xx_HAL_Driver/Src/stm32f0xx_hal_rcc.c **** 
  85:Drivers/STM32F0xx_HAL_Driver/Src/stm32f0xx_hal_rcc.c **** /** @defgroup RCC RCC
  86:Drivers/STM32F0xx_HAL_Driver/Src/stm32f0xx_hal_rcc.c **** * @brief RCC HAL module driver
  87:Drivers/STM32F0xx_HAL_Driver/Src/stm32f0xx_hal_rcc.c ****   * @{
  88:Drivers/STM32F0xx_HAL_Driver/Src/stm32f0xx_hal_rcc.c ****   */
  89:Drivers/STM32F0xx_HAL_Driver/Src/stm32f0xx_hal_rcc.c **** 
ARM GAS  C:\Users\0.0\AppData\Local\Temp\cceJoyYc.s 			page 3


  90:Drivers/STM32F0xx_HAL_Driver/Src/stm32f0xx_hal_rcc.c **** #ifdef HAL_RCC_MODULE_ENABLED
  91:Drivers/STM32F0xx_HAL_Driver/Src/stm32f0xx_hal_rcc.c **** 
  92:Drivers/STM32F0xx_HAL_Driver/Src/stm32f0xx_hal_rcc.c **** /* Private typedef -----------------------------------------------------------*/
  93:Drivers/STM32F0xx_HAL_Driver/Src/stm32f0xx_hal_rcc.c **** /* Private define ------------------------------------------------------------*/
  94:Drivers/STM32F0xx_HAL_Driver/Src/stm32f0xx_hal_rcc.c **** /** @defgroup RCC_Private_Constants RCC Private Constants
  95:Drivers/STM32F0xx_HAL_Driver/Src/stm32f0xx_hal_rcc.c ****  * @{
  96:Drivers/STM32F0xx_HAL_Driver/Src/stm32f0xx_hal_rcc.c ****  */
  97:Drivers/STM32F0xx_HAL_Driver/Src/stm32f0xx_hal_rcc.c **** /**
  98:Drivers/STM32F0xx_HAL_Driver/Src/stm32f0xx_hal_rcc.c ****   * @}
  99:Drivers/STM32F0xx_HAL_Driver/Src/stm32f0xx_hal_rcc.c ****   */
 100:Drivers/STM32F0xx_HAL_Driver/Src/stm32f0xx_hal_rcc.c **** /* Private macro -------------------------------------------------------------*/
 101:Drivers/STM32F0xx_HAL_Driver/Src/stm32f0xx_hal_rcc.c **** /** @defgroup RCC_Private_Macros RCC Private Macros
 102:Drivers/STM32F0xx_HAL_Driver/Src/stm32f0xx_hal_rcc.c ****   * @{
 103:Drivers/STM32F0xx_HAL_Driver/Src/stm32f0xx_hal_rcc.c ****   */
 104:Drivers/STM32F0xx_HAL_Driver/Src/stm32f0xx_hal_rcc.c **** 
 105:Drivers/STM32F0xx_HAL_Driver/Src/stm32f0xx_hal_rcc.c **** #define MCO1_CLK_ENABLE()     __HAL_RCC_GPIOA_CLK_ENABLE()
 106:Drivers/STM32F0xx_HAL_Driver/Src/stm32f0xx_hal_rcc.c **** #define MCO1_GPIO_PORT        GPIOA
 107:Drivers/STM32F0xx_HAL_Driver/Src/stm32f0xx_hal_rcc.c **** #define MCO1_PIN              GPIO_PIN_8
 108:Drivers/STM32F0xx_HAL_Driver/Src/stm32f0xx_hal_rcc.c **** 
 109:Drivers/STM32F0xx_HAL_Driver/Src/stm32f0xx_hal_rcc.c **** /**
 110:Drivers/STM32F0xx_HAL_Driver/Src/stm32f0xx_hal_rcc.c ****   * @}
 111:Drivers/STM32F0xx_HAL_Driver/Src/stm32f0xx_hal_rcc.c ****   */
 112:Drivers/STM32F0xx_HAL_Driver/Src/stm32f0xx_hal_rcc.c **** 
 113:Drivers/STM32F0xx_HAL_Driver/Src/stm32f0xx_hal_rcc.c **** /* Private variables ---------------------------------------------------------*/
 114:Drivers/STM32F0xx_HAL_Driver/Src/stm32f0xx_hal_rcc.c **** /** @defgroup RCC_Private_Variables RCC Private Variables
 115:Drivers/STM32F0xx_HAL_Driver/Src/stm32f0xx_hal_rcc.c ****   * @{
 116:Drivers/STM32F0xx_HAL_Driver/Src/stm32f0xx_hal_rcc.c ****   */
 117:Drivers/STM32F0xx_HAL_Driver/Src/stm32f0xx_hal_rcc.c **** /**
 118:Drivers/STM32F0xx_HAL_Driver/Src/stm32f0xx_hal_rcc.c ****   * @}
 119:Drivers/STM32F0xx_HAL_Driver/Src/stm32f0xx_hal_rcc.c ****   */
 120:Drivers/STM32F0xx_HAL_Driver/Src/stm32f0xx_hal_rcc.c **** 
 121:Drivers/STM32F0xx_HAL_Driver/Src/stm32f0xx_hal_rcc.c **** /* Private function prototypes -----------------------------------------------*/
 122:Drivers/STM32F0xx_HAL_Driver/Src/stm32f0xx_hal_rcc.c **** /* Exported functions ---------------------------------------------------------*/
 123:Drivers/STM32F0xx_HAL_Driver/Src/stm32f0xx_hal_rcc.c **** 
 124:Drivers/STM32F0xx_HAL_Driver/Src/stm32f0xx_hal_rcc.c **** /** @defgroup RCC_Exported_Functions RCC Exported Functions
 125:Drivers/STM32F0xx_HAL_Driver/Src/stm32f0xx_hal_rcc.c ****   * @{
 126:Drivers/STM32F0xx_HAL_Driver/Src/stm32f0xx_hal_rcc.c ****   */
 127:Drivers/STM32F0xx_HAL_Driver/Src/stm32f0xx_hal_rcc.c **** 
 128:Drivers/STM32F0xx_HAL_Driver/Src/stm32f0xx_hal_rcc.c **** /** @defgroup RCC_Exported_Functions_Group1 Initialization and de-initialization functions 
 129:Drivers/STM32F0xx_HAL_Driver/Src/stm32f0xx_hal_rcc.c ****   *  @brief    Initialization and Configuration functions 
 130:Drivers/STM32F0xx_HAL_Driver/Src/stm32f0xx_hal_rcc.c ****   *
 131:Drivers/STM32F0xx_HAL_Driver/Src/stm32f0xx_hal_rcc.c ****   @verbatim    
 132:Drivers/STM32F0xx_HAL_Driver/Src/stm32f0xx_hal_rcc.c ****   ===============================================================================
 133:Drivers/STM32F0xx_HAL_Driver/Src/stm32f0xx_hal_rcc.c ****            ##### Initialization and de-initialization functions #####
 134:Drivers/STM32F0xx_HAL_Driver/Src/stm32f0xx_hal_rcc.c ****   ===============================================================================
 135:Drivers/STM32F0xx_HAL_Driver/Src/stm32f0xx_hal_rcc.c ****     [..]
 136:Drivers/STM32F0xx_HAL_Driver/Src/stm32f0xx_hal_rcc.c ****       This section provides functions allowing to configure the internal/external oscillators
 137:Drivers/STM32F0xx_HAL_Driver/Src/stm32f0xx_hal_rcc.c ****       (HSE, HSI, HSI14, HSI48, LSE, LSI, PLL, CSS and MCO) and the System buses clocks (SYSCLK, 
 138:Drivers/STM32F0xx_HAL_Driver/Src/stm32f0xx_hal_rcc.c ****       AHB and APB1).
 139:Drivers/STM32F0xx_HAL_Driver/Src/stm32f0xx_hal_rcc.c **** 
 140:Drivers/STM32F0xx_HAL_Driver/Src/stm32f0xx_hal_rcc.c ****     [..] Internal/external clock and PLL configuration
 141:Drivers/STM32F0xx_HAL_Driver/Src/stm32f0xx_hal_rcc.c ****       (#) HSI (high-speed internal), 8 MHz factory-trimmed RC used directly or through
 142:Drivers/STM32F0xx_HAL_Driver/Src/stm32f0xx_hal_rcc.c ****           the PLL as System clock source.
 143:Drivers/STM32F0xx_HAL_Driver/Src/stm32f0xx_hal_rcc.c ****           The HSI clock can be used also to clock the USART and I2C peripherals.
 144:Drivers/STM32F0xx_HAL_Driver/Src/stm32f0xx_hal_rcc.c **** 
 145:Drivers/STM32F0xx_HAL_Driver/Src/stm32f0xx_hal_rcc.c ****       (#) HSI14 (high-speed internal), 14 MHz factory-trimmed RC used directly to clock 
 146:Drivers/STM32F0xx_HAL_Driver/Src/stm32f0xx_hal_rcc.c ****           the ADC peripheral.
ARM GAS  C:\Users\0.0\AppData\Local\Temp\cceJoyYc.s 			page 4


 147:Drivers/STM32F0xx_HAL_Driver/Src/stm32f0xx_hal_rcc.c **** 
 148:Drivers/STM32F0xx_HAL_Driver/Src/stm32f0xx_hal_rcc.c ****       (#) LSI (low-speed internal), ~40 KHz low consumption RC used as IWDG and/or RTC
 149:Drivers/STM32F0xx_HAL_Driver/Src/stm32f0xx_hal_rcc.c ****           clock source.
 150:Drivers/STM32F0xx_HAL_Driver/Src/stm32f0xx_hal_rcc.c **** 
 151:Drivers/STM32F0xx_HAL_Driver/Src/stm32f0xx_hal_rcc.c ****       (#) HSE (high-speed external), 4 to 32 MHz crystal oscillator used directly or
 152:Drivers/STM32F0xx_HAL_Driver/Src/stm32f0xx_hal_rcc.c ****           through the PLL as System clock source. Can be used also as RTC clock source.
 153:Drivers/STM32F0xx_HAL_Driver/Src/stm32f0xx_hal_rcc.c **** 
 154:Drivers/STM32F0xx_HAL_Driver/Src/stm32f0xx_hal_rcc.c ****       (#) LSE (low-speed external), 32 KHz oscillator used as RTC clock source.   
 155:Drivers/STM32F0xx_HAL_Driver/Src/stm32f0xx_hal_rcc.c **** 
 156:Drivers/STM32F0xx_HAL_Driver/Src/stm32f0xx_hal_rcc.c ****       (#) PLL (clocked by HSI, HSI48 or HSE), featuring different output clocks:
 157:Drivers/STM32F0xx_HAL_Driver/Src/stm32f0xx_hal_rcc.c ****        (++) The first output is used to generate the high speed system clock (up to 48 MHz)
 158:Drivers/STM32F0xx_HAL_Driver/Src/stm32f0xx_hal_rcc.c ****        (++) The second output is used to generate the clock for the USB FS (48 MHz)
 159:Drivers/STM32F0xx_HAL_Driver/Src/stm32f0xx_hal_rcc.c ****        (++) The third output may be used to generate the clock for the TIM, I2C and USART 
 160:Drivers/STM32F0xx_HAL_Driver/Src/stm32f0xx_hal_rcc.c ****             peripherals (up to 48 MHz)
 161:Drivers/STM32F0xx_HAL_Driver/Src/stm32f0xx_hal_rcc.c **** 
 162:Drivers/STM32F0xx_HAL_Driver/Src/stm32f0xx_hal_rcc.c ****       (#) CSS (Clock security system), once enable using the macro __HAL_RCC_CSS_ENABLE()
 163:Drivers/STM32F0xx_HAL_Driver/Src/stm32f0xx_hal_rcc.c ****           and if a HSE clock failure occurs(HSE used directly or through PLL as System 
 164:Drivers/STM32F0xx_HAL_Driver/Src/stm32f0xx_hal_rcc.c ****           clock source), the System clocks automatically switched to HSI and an interrupt
 165:Drivers/STM32F0xx_HAL_Driver/Src/stm32f0xx_hal_rcc.c ****           is generated if enabled. The interrupt is linked to the Cortex-M0 NMI 
 166:Drivers/STM32F0xx_HAL_Driver/Src/stm32f0xx_hal_rcc.c ****           (Non-Maskable Interrupt) exception vector.   
 167:Drivers/STM32F0xx_HAL_Driver/Src/stm32f0xx_hal_rcc.c **** 
 168:Drivers/STM32F0xx_HAL_Driver/Src/stm32f0xx_hal_rcc.c ****       (#) MCO (microcontroller clock output), used to output SYSCLK, HSI, HSE, LSI, LSE or PLL
 169:Drivers/STM32F0xx_HAL_Driver/Src/stm32f0xx_hal_rcc.c ****           clock (divided by 2) output on pin (such as PA8 pin).
 170:Drivers/STM32F0xx_HAL_Driver/Src/stm32f0xx_hal_rcc.c **** 
 171:Drivers/STM32F0xx_HAL_Driver/Src/stm32f0xx_hal_rcc.c ****     [..] System, AHB and APB buses clocks configuration
 172:Drivers/STM32F0xx_HAL_Driver/Src/stm32f0xx_hal_rcc.c ****       (#) Several clock sources can be used to drive the System clock (SYSCLK): HSI,
 173:Drivers/STM32F0xx_HAL_Driver/Src/stm32f0xx_hal_rcc.c ****           HSE and PLL.
 174:Drivers/STM32F0xx_HAL_Driver/Src/stm32f0xx_hal_rcc.c ****           The AHB clock (HCLK) is derived from System clock through configurable
 175:Drivers/STM32F0xx_HAL_Driver/Src/stm32f0xx_hal_rcc.c ****           prescaler and used to clock the CPU, memory and peripherals mapped
 176:Drivers/STM32F0xx_HAL_Driver/Src/stm32f0xx_hal_rcc.c ****           on AHB bus (DMA, GPIO...). APB1 (PCLK1) clock is derived
 177:Drivers/STM32F0xx_HAL_Driver/Src/stm32f0xx_hal_rcc.c ****           from AHB clock through configurable prescalers and used to clock
 178:Drivers/STM32F0xx_HAL_Driver/Src/stm32f0xx_hal_rcc.c ****           the peripherals mapped on these buses. You can use
 179:Drivers/STM32F0xx_HAL_Driver/Src/stm32f0xx_hal_rcc.c ****           "@ref HAL_RCC_GetSysClockFreq()" function to retrieve the frequencies of these clocks.
 180:Drivers/STM32F0xx_HAL_Driver/Src/stm32f0xx_hal_rcc.c **** 
 181:Drivers/STM32F0xx_HAL_Driver/Src/stm32f0xx_hal_rcc.c ****       (#) All the peripheral clocks are derived from the System clock (SYSCLK) except:
 182:Drivers/STM32F0xx_HAL_Driver/Src/stm32f0xx_hal_rcc.c ****         (++) The FLASH program/erase clock  which is always HSI 8MHz clock.
 183:Drivers/STM32F0xx_HAL_Driver/Src/stm32f0xx_hal_rcc.c ****         (++) The USB 48 MHz clock which is derived from the PLL VCO clock.
 184:Drivers/STM32F0xx_HAL_Driver/Src/stm32f0xx_hal_rcc.c ****         (++) The USART clock which can be derived as well from HSI 8MHz, LSI or LSE.
 185:Drivers/STM32F0xx_HAL_Driver/Src/stm32f0xx_hal_rcc.c ****         (++) The I2C clock which can be derived as well from HSI 8MHz clock.
 186:Drivers/STM32F0xx_HAL_Driver/Src/stm32f0xx_hal_rcc.c ****         (++) The ADC clock which is derived from PLL output.
 187:Drivers/STM32F0xx_HAL_Driver/Src/stm32f0xx_hal_rcc.c ****         (++) The RTC clock which is derived from the LSE, LSI or 1 MHz HSE_RTC
 188:Drivers/STM32F0xx_HAL_Driver/Src/stm32f0xx_hal_rcc.c ****              (HSE divided by a programmable prescaler). The System clock (SYSCLK)
 189:Drivers/STM32F0xx_HAL_Driver/Src/stm32f0xx_hal_rcc.c ****              frequency must be higher or equal to the RTC clock frequency.
 190:Drivers/STM32F0xx_HAL_Driver/Src/stm32f0xx_hal_rcc.c ****         (++) IWDG clock which is always the LSI clock.
 191:Drivers/STM32F0xx_HAL_Driver/Src/stm32f0xx_hal_rcc.c **** 
 192:Drivers/STM32F0xx_HAL_Driver/Src/stm32f0xx_hal_rcc.c ****       (#) For the STM32F0xx devices, the maximum frequency of the SYSCLK, HCLK and PCLK1 is 48 MHz,
 193:Drivers/STM32F0xx_HAL_Driver/Src/stm32f0xx_hal_rcc.c ****           Depending on the SYSCLK frequency, the flash latency should be adapted accordingly.
 194:Drivers/STM32F0xx_HAL_Driver/Src/stm32f0xx_hal_rcc.c **** 
 195:Drivers/STM32F0xx_HAL_Driver/Src/stm32f0xx_hal_rcc.c ****       (#) After reset, the System clock source is the HSI (8 MHz) with 0 WS and
 196:Drivers/STM32F0xx_HAL_Driver/Src/stm32f0xx_hal_rcc.c ****           prefetch is disabled.
 197:Drivers/STM32F0xx_HAL_Driver/Src/stm32f0xx_hal_rcc.c ****   @endverbatim
 198:Drivers/STM32F0xx_HAL_Driver/Src/stm32f0xx_hal_rcc.c ****   * @{
 199:Drivers/STM32F0xx_HAL_Driver/Src/stm32f0xx_hal_rcc.c ****   */
 200:Drivers/STM32F0xx_HAL_Driver/Src/stm32f0xx_hal_rcc.c ****   
 201:Drivers/STM32F0xx_HAL_Driver/Src/stm32f0xx_hal_rcc.c **** /*
 202:Drivers/STM32F0xx_HAL_Driver/Src/stm32f0xx_hal_rcc.c ****   Additional consideration on the SYSCLK based on Latency settings:
 203:Drivers/STM32F0xx_HAL_Driver/Src/stm32f0xx_hal_rcc.c ****           +-----------------------------------------------+
ARM GAS  C:\Users\0.0\AppData\Local\Temp\cceJoyYc.s 			page 5


 204:Drivers/STM32F0xx_HAL_Driver/Src/stm32f0xx_hal_rcc.c ****           | Latency       | SYSCLK clock frequency (MHz)  |
 205:Drivers/STM32F0xx_HAL_Driver/Src/stm32f0xx_hal_rcc.c ****           |---------------|-------------------------------|
 206:Drivers/STM32F0xx_HAL_Driver/Src/stm32f0xx_hal_rcc.c ****           |0WS(1CPU cycle)|       0 < SYSCLK <= 24        |
 207:Drivers/STM32F0xx_HAL_Driver/Src/stm32f0xx_hal_rcc.c ****           |---------------|-------------------------------|
 208:Drivers/STM32F0xx_HAL_Driver/Src/stm32f0xx_hal_rcc.c ****           |1WS(2CPU cycle)|      24 < SYSCLK <= 48        |
 209:Drivers/STM32F0xx_HAL_Driver/Src/stm32f0xx_hal_rcc.c ****           +-----------------------------------------------+
 210:Drivers/STM32F0xx_HAL_Driver/Src/stm32f0xx_hal_rcc.c ****   */
 211:Drivers/STM32F0xx_HAL_Driver/Src/stm32f0xx_hal_rcc.c **** 
 212:Drivers/STM32F0xx_HAL_Driver/Src/stm32f0xx_hal_rcc.c **** /**
 213:Drivers/STM32F0xx_HAL_Driver/Src/stm32f0xx_hal_rcc.c ****   * @brief  Resets the RCC clock configuration to the default reset state.
 214:Drivers/STM32F0xx_HAL_Driver/Src/stm32f0xx_hal_rcc.c ****   * @note   The default reset state of the clock configuration is given below:
 215:Drivers/STM32F0xx_HAL_Driver/Src/stm32f0xx_hal_rcc.c ****   *            - HSI ON and used as system clock source
 216:Drivers/STM32F0xx_HAL_Driver/Src/stm32f0xx_hal_rcc.c ****   *            - HSE and PLL OFF
 217:Drivers/STM32F0xx_HAL_Driver/Src/stm32f0xx_hal_rcc.c ****   *            - AHB, APB1 prescaler set to 1.
 218:Drivers/STM32F0xx_HAL_Driver/Src/stm32f0xx_hal_rcc.c ****   *            - CSS and MCO1 OFF
 219:Drivers/STM32F0xx_HAL_Driver/Src/stm32f0xx_hal_rcc.c ****   *            - All interrupts disabled
 220:Drivers/STM32F0xx_HAL_Driver/Src/stm32f0xx_hal_rcc.c ****   * @note   This function does not modify the configuration of the
 221:Drivers/STM32F0xx_HAL_Driver/Src/stm32f0xx_hal_rcc.c ****   *            - Peripheral clocks
 222:Drivers/STM32F0xx_HAL_Driver/Src/stm32f0xx_hal_rcc.c ****   *            - LSI, LSE and RTC clocks
 223:Drivers/STM32F0xx_HAL_Driver/Src/stm32f0xx_hal_rcc.c ****   * @retval None
 224:Drivers/STM32F0xx_HAL_Driver/Src/stm32f0xx_hal_rcc.c ****   */
 225:Drivers/STM32F0xx_HAL_Driver/Src/stm32f0xx_hal_rcc.c **** void HAL_RCC_DeInit(void)
 226:Drivers/STM32F0xx_HAL_Driver/Src/stm32f0xx_hal_rcc.c **** {
  27              		.loc 1 226 1 view -0
  28              		.cfi_startproc
  29              		@ args = 0, pretend = 0, frame = 0
  30              		@ frame_needed = 0, uses_anonymous_args = 0
  31              		@ link register save eliminated.
 227:Drivers/STM32F0xx_HAL_Driver/Src/stm32f0xx_hal_rcc.c ****   /* Set HSION bit, HSITRIM[4:0] bits to the reset value*/
 228:Drivers/STM32F0xx_HAL_Driver/Src/stm32f0xx_hal_rcc.c ****   SET_BIT(RCC->CR, RCC_CR_HSION | RCC_CR_HSITRIM_4); 
  32              		.loc 1 228 3 view .LVU1
  33 0000 0C4B     		ldr	r3, .L2
  34 0002 1A68     		ldr	r2, [r3]
  35 0004 8121     		movs	r1, #129
  36 0006 0A43     		orrs	r2, r1
  37 0008 1A60     		str	r2, [r3]
 229:Drivers/STM32F0xx_HAL_Driver/Src/stm32f0xx_hal_rcc.c **** 
 230:Drivers/STM32F0xx_HAL_Driver/Src/stm32f0xx_hal_rcc.c ****   /* Reset SW[1:0], HPRE[3:0], PPRE[2:0] and MCOSEL[2:0] bits */
 231:Drivers/STM32F0xx_HAL_Driver/Src/stm32f0xx_hal_rcc.c ****   CLEAR_BIT(RCC->CFGR, RCC_CFGR_SW | RCC_CFGR_HPRE | RCC_CFGR_PPRE | RCC_CFGR_MCO);
  38              		.loc 1 231 3 view .LVU2
  39 000a 5A68     		ldr	r2, [r3, #4]
  40 000c 0A49     		ldr	r1, .L2+4
  41 000e 0A40     		ands	r2, r1
  42 0010 5A60     		str	r2, [r3, #4]
 232:Drivers/STM32F0xx_HAL_Driver/Src/stm32f0xx_hal_rcc.c **** 
 233:Drivers/STM32F0xx_HAL_Driver/Src/stm32f0xx_hal_rcc.c ****   /* Reset HSEON, CSSON, PLLON bits */
 234:Drivers/STM32F0xx_HAL_Driver/Src/stm32f0xx_hal_rcc.c ****   CLEAR_BIT(RCC->CR, RCC_CR_PLLON | RCC_CR_CSSON | RCC_CR_HSEON);
  43              		.loc 1 234 3 view .LVU3
  44 0012 1A68     		ldr	r2, [r3]
  45 0014 0949     		ldr	r1, .L2+8
  46 0016 0A40     		ands	r2, r1
  47 0018 1A60     		str	r2, [r3]
 235:Drivers/STM32F0xx_HAL_Driver/Src/stm32f0xx_hal_rcc.c ****   
 236:Drivers/STM32F0xx_HAL_Driver/Src/stm32f0xx_hal_rcc.c ****   /* Reset HSEBYP bit */
 237:Drivers/STM32F0xx_HAL_Driver/Src/stm32f0xx_hal_rcc.c ****   CLEAR_BIT(RCC->CR, RCC_CR_HSEBYP);
  48              		.loc 1 237 3 view .LVU4
  49 001a 1A68     		ldr	r2, [r3]
ARM GAS  C:\Users\0.0\AppData\Local\Temp\cceJoyYc.s 			page 6


  50 001c 0849     		ldr	r1, .L2+12
  51 001e 0A40     		ands	r2, r1
  52 0020 1A60     		str	r2, [r3]
 238:Drivers/STM32F0xx_HAL_Driver/Src/stm32f0xx_hal_rcc.c **** 
 239:Drivers/STM32F0xx_HAL_Driver/Src/stm32f0xx_hal_rcc.c ****   /* Reset CFGR register */
 240:Drivers/STM32F0xx_HAL_Driver/Src/stm32f0xx_hal_rcc.c ****   CLEAR_REG(RCC->CFGR);
  53              		.loc 1 240 3 view .LVU5
  54 0022 0022     		movs	r2, #0
  55 0024 5A60     		str	r2, [r3, #4]
 241:Drivers/STM32F0xx_HAL_Driver/Src/stm32f0xx_hal_rcc.c ****   
 242:Drivers/STM32F0xx_HAL_Driver/Src/stm32f0xx_hal_rcc.c ****   /* Reset CFGR2 register */
 243:Drivers/STM32F0xx_HAL_Driver/Src/stm32f0xx_hal_rcc.c ****   CLEAR_REG(RCC->CFGR2);
  56              		.loc 1 243 3 view .LVU6
  57 0026 DA62     		str	r2, [r3, #44]
 244:Drivers/STM32F0xx_HAL_Driver/Src/stm32f0xx_hal_rcc.c ****   
 245:Drivers/STM32F0xx_HAL_Driver/Src/stm32f0xx_hal_rcc.c ****   /* Reset CFGR3 register */
 246:Drivers/STM32F0xx_HAL_Driver/Src/stm32f0xx_hal_rcc.c ****   CLEAR_REG(RCC->CFGR3);
  58              		.loc 1 246 3 view .LVU7
  59 0028 1A63     		str	r2, [r3, #48]
 247:Drivers/STM32F0xx_HAL_Driver/Src/stm32f0xx_hal_rcc.c ****   
 248:Drivers/STM32F0xx_HAL_Driver/Src/stm32f0xx_hal_rcc.c ****   /* Disable all interrupts */
 249:Drivers/STM32F0xx_HAL_Driver/Src/stm32f0xx_hal_rcc.c ****   CLEAR_REG(RCC->CIR);
  60              		.loc 1 249 3 view .LVU8
  61 002a 9A60     		str	r2, [r3, #8]
 250:Drivers/STM32F0xx_HAL_Driver/Src/stm32f0xx_hal_rcc.c **** 
 251:Drivers/STM32F0xx_HAL_Driver/Src/stm32f0xx_hal_rcc.c ****   /* Update the SystemCoreClock global variable */
 252:Drivers/STM32F0xx_HAL_Driver/Src/stm32f0xx_hal_rcc.c ****   SystemCoreClock = HSI_VALUE;
  62              		.loc 1 252 3 view .LVU9
  63              		.loc 1 252 19 is_stmt 0 view .LVU10
  64 002c 054B     		ldr	r3, .L2+16
  65 002e 064A     		ldr	r2, .L2+20
  66 0030 1A60     		str	r2, [r3]
 253:Drivers/STM32F0xx_HAL_Driver/Src/stm32f0xx_hal_rcc.c **** }
  67              		.loc 1 253 1 view .LVU11
  68              		@ sp needed
  69 0032 7047     		bx	lr
  70              	.L3:
  71              		.align	2
  72              	.L2:
  73 0034 00100240 		.word	1073876992
  74 0038 0CF8FFF0 		.word	-251660276
  75 003c FFFFF6FE 		.word	-17367041
  76 0040 FFFFFBFF 		.word	-262145
  77 0044 00000000 		.word	SystemCoreClock
  78 0048 00127A00 		.word	8000000
  79              		.cfi_endproc
  80              	.LFE37:
  82              		.section	.text.HAL_RCC_OscConfig,"ax",%progbits
  83              		.align	1
  84              		.global	HAL_RCC_OscConfig
  85              		.syntax unified
  86              		.code	16
  87              		.thumb_func
  89              	HAL_RCC_OscConfig:
  90              	.LVL0:
  91              	.LFB38:
 254:Drivers/STM32F0xx_HAL_Driver/Src/stm32f0xx_hal_rcc.c **** 
ARM GAS  C:\Users\0.0\AppData\Local\Temp\cceJoyYc.s 			page 7


 255:Drivers/STM32F0xx_HAL_Driver/Src/stm32f0xx_hal_rcc.c **** /**
 256:Drivers/STM32F0xx_HAL_Driver/Src/stm32f0xx_hal_rcc.c ****   * @brief  Initializes the RCC Oscillators according to the specified parameters in the
 257:Drivers/STM32F0xx_HAL_Driver/Src/stm32f0xx_hal_rcc.c ****   *         RCC_OscInitTypeDef.
 258:Drivers/STM32F0xx_HAL_Driver/Src/stm32f0xx_hal_rcc.c ****   * @param  RCC_OscInitStruct pointer to an RCC_OscInitTypeDef structure that
 259:Drivers/STM32F0xx_HAL_Driver/Src/stm32f0xx_hal_rcc.c ****   *         contains the configuration information for the RCC Oscillators.
 260:Drivers/STM32F0xx_HAL_Driver/Src/stm32f0xx_hal_rcc.c ****   * @note   The PLL is not disabled when used as system clock.
 261:Drivers/STM32F0xx_HAL_Driver/Src/stm32f0xx_hal_rcc.c ****   * @note   Transitions LSE Bypass to LSE On and LSE On to LSE Bypass are not
 262:Drivers/STM32F0xx_HAL_Driver/Src/stm32f0xx_hal_rcc.c ****   *         supported by this macro. User should request a transition to LSE Off
 263:Drivers/STM32F0xx_HAL_Driver/Src/stm32f0xx_hal_rcc.c ****   *         first and then LSE On or LSE Bypass.
 264:Drivers/STM32F0xx_HAL_Driver/Src/stm32f0xx_hal_rcc.c ****   * @note   Transition HSE Bypass to HSE On and HSE On to HSE Bypass are not
 265:Drivers/STM32F0xx_HAL_Driver/Src/stm32f0xx_hal_rcc.c ****   *         supported by this macro. User should request a transition to HSE Off
 266:Drivers/STM32F0xx_HAL_Driver/Src/stm32f0xx_hal_rcc.c ****   *         first and then HSE On or HSE Bypass.
 267:Drivers/STM32F0xx_HAL_Driver/Src/stm32f0xx_hal_rcc.c ****   * @retval HAL status
 268:Drivers/STM32F0xx_HAL_Driver/Src/stm32f0xx_hal_rcc.c ****   */
 269:Drivers/STM32F0xx_HAL_Driver/Src/stm32f0xx_hal_rcc.c **** HAL_StatusTypeDef HAL_RCC_OscConfig(RCC_OscInitTypeDef  *RCC_OscInitStruct)
 270:Drivers/STM32F0xx_HAL_Driver/Src/stm32f0xx_hal_rcc.c **** {
  92              		.loc 1 270 1 is_stmt 1 view -0
  93              		.cfi_startproc
  94              		@ args = 0, pretend = 0, frame = 8
  95              		@ frame_needed = 0, uses_anonymous_args = 0
  96              		.loc 1 270 1 is_stmt 0 view .LVU13
  97 0000 70B5     		push	{r4, r5, r6, lr}
  98              	.LCFI0:
  99              		.cfi_def_cfa_offset 16
 100              		.cfi_offset 4, -16
 101              		.cfi_offset 5, -12
 102              		.cfi_offset 6, -8
 103              		.cfi_offset 14, -4
 104 0002 82B0     		sub	sp, sp, #8
 105              	.LCFI1:
 106              		.cfi_def_cfa_offset 24
 107 0004 0400     		movs	r4, r0
 271:Drivers/STM32F0xx_HAL_Driver/Src/stm32f0xx_hal_rcc.c ****    uint32_t tickstart = 0U;
 108              		.loc 1 271 4 is_stmt 1 view .LVU14
 109              	.LVL1:
 272:Drivers/STM32F0xx_HAL_Driver/Src/stm32f0xx_hal_rcc.c ****   
 273:Drivers/STM32F0xx_HAL_Driver/Src/stm32f0xx_hal_rcc.c ****   /* Check the parameters */
 274:Drivers/STM32F0xx_HAL_Driver/Src/stm32f0xx_hal_rcc.c ****   assert_param(RCC_OscInitStruct != NULL);
 110              		.loc 1 274 3 view .LVU15
 275:Drivers/STM32F0xx_HAL_Driver/Src/stm32f0xx_hal_rcc.c ****   assert_param(IS_RCC_OSCILLATORTYPE(RCC_OscInitStruct->OscillatorType));
 111              		.loc 1 275 3 view .LVU16
 276:Drivers/STM32F0xx_HAL_Driver/Src/stm32f0xx_hal_rcc.c **** 
 277:Drivers/STM32F0xx_HAL_Driver/Src/stm32f0xx_hal_rcc.c ****   /*------------------------------- HSE Configuration ------------------------*/ 
 278:Drivers/STM32F0xx_HAL_Driver/Src/stm32f0xx_hal_rcc.c ****   if(((RCC_OscInitStruct->OscillatorType) & RCC_OSCILLATORTYPE_HSE) == RCC_OSCILLATORTYPE_HSE)
 112              		.loc 1 278 3 view .LVU17
 113              		.loc 1 278 25 is_stmt 0 view .LVU18
 114 0006 0368     		ldr	r3, [r0]
 115              		.loc 1 278 5 view .LVU19
 116 0008 DB07     		lsls	r3, r3, #31
 117 000a 2BD5     		bpl	.L5
 279:Drivers/STM32F0xx_HAL_Driver/Src/stm32f0xx_hal_rcc.c ****   {
 280:Drivers/STM32F0xx_HAL_Driver/Src/stm32f0xx_hal_rcc.c ****     /* Check the parameters */
 281:Drivers/STM32F0xx_HAL_Driver/Src/stm32f0xx_hal_rcc.c ****     assert_param(IS_RCC_HSE(RCC_OscInitStruct->HSEState));
 118              		.loc 1 281 5 is_stmt 1 view .LVU20
 282:Drivers/STM32F0xx_HAL_Driver/Src/stm32f0xx_hal_rcc.c **** 
 283:Drivers/STM32F0xx_HAL_Driver/Src/stm32f0xx_hal_rcc.c ****     /* When the HSE is used as system clock or clock source for PLL in these cases it is not allowe
 284:Drivers/STM32F0xx_HAL_Driver/Src/stm32f0xx_hal_rcc.c ****     if((__HAL_RCC_GET_SYSCLK_SOURCE() == RCC_SYSCLKSOURCE_STATUS_HSE) 
ARM GAS  C:\Users\0.0\AppData\Local\Temp\cceJoyYc.s 			page 8


 119              		.loc 1 284 5 view .LVU21
 120              		.loc 1 284 9 is_stmt 0 view .LVU22
 121 000c B34B     		ldr	r3, .L119
 122 000e 5A68     		ldr	r2, [r3, #4]
 123 0010 0C23     		movs	r3, #12
 124 0012 1340     		ands	r3, r2
 125              		.loc 1 284 7 view .LVU23
 126 0014 042B     		cmp	r3, #4
 127 0016 1DD0     		beq	.L6
 285:Drivers/STM32F0xx_HAL_Driver/Src/stm32f0xx_hal_rcc.c ****        || ((__HAL_RCC_GET_SYSCLK_SOURCE() == RCC_SYSCLKSOURCE_STATUS_PLLCLK) && (__HAL_RCC_GET_PLL_
 128              		.loc 1 285 13 view .LVU24
 129 0018 B04B     		ldr	r3, .L119
 130 001a 5A68     		ldr	r2, [r3, #4]
 131 001c 0C23     		movs	r3, #12
 132 001e 1340     		ands	r3, r2
 133              		.loc 1 285 8 view .LVU25
 134 0020 082B     		cmp	r3, #8
 135 0022 0ED0     		beq	.L102
 136              	.L7:
 286:Drivers/STM32F0xx_HAL_Driver/Src/stm32f0xx_hal_rcc.c ****     {
 287:Drivers/STM32F0xx_HAL_Driver/Src/stm32f0xx_hal_rcc.c ****       if((__HAL_RCC_GET_FLAG(RCC_FLAG_HSERDY) != RESET) && (RCC_OscInitStruct->HSEState == RCC_HSE_
 288:Drivers/STM32F0xx_HAL_Driver/Src/stm32f0xx_hal_rcc.c ****       {
 289:Drivers/STM32F0xx_HAL_Driver/Src/stm32f0xx_hal_rcc.c ****         return HAL_ERROR;
 290:Drivers/STM32F0xx_HAL_Driver/Src/stm32f0xx_hal_rcc.c ****       }
 291:Drivers/STM32F0xx_HAL_Driver/Src/stm32f0xx_hal_rcc.c ****     }
 292:Drivers/STM32F0xx_HAL_Driver/Src/stm32f0xx_hal_rcc.c ****     else
 293:Drivers/STM32F0xx_HAL_Driver/Src/stm32f0xx_hal_rcc.c ****     {
 294:Drivers/STM32F0xx_HAL_Driver/Src/stm32f0xx_hal_rcc.c ****       /* Set the new HSE configuration ---------------------------------------*/
 295:Drivers/STM32F0xx_HAL_Driver/Src/stm32f0xx_hal_rcc.c ****       __HAL_RCC_HSE_CONFIG(RCC_OscInitStruct->HSEState);
 137              		.loc 1 295 7 is_stmt 1 view .LVU26
 138              		.loc 1 295 7 view .LVU27
 139 0024 6368     		ldr	r3, [r4, #4]
 140 0026 012B     		cmp	r3, #1
 141 0028 41D0     		beq	.L103
 142              		.loc 1 295 7 discriminator 2 view .LVU28
 143 002a 002B     		cmp	r3, #0
 144 002c 56D1     		bne	.L11
 145              		.loc 1 295 7 discriminator 4 view .LVU29
 146 002e AB4B     		ldr	r3, .L119
 147 0030 1A68     		ldr	r2, [r3]
 148 0032 AB49     		ldr	r1, .L119+4
 149 0034 0A40     		ands	r2, r1
 150 0036 1A60     		str	r2, [r3]
 151              		.loc 1 295 7 discriminator 4 view .LVU30
 152 0038 1A68     		ldr	r2, [r3]
 153 003a AA49     		ldr	r1, .L119+8
 154 003c 0A40     		ands	r2, r1
 155 003e 1A60     		str	r2, [r3]
 156 0040 3BE0     		b	.L10
 157              	.L102:
 285:Drivers/STM32F0xx_HAL_Driver/Src/stm32f0xx_hal_rcc.c ****        || ((__HAL_RCC_GET_SYSCLK_SOURCE() == RCC_SYSCLKSOURCE_STATUS_PLLCLK) && (__HAL_RCC_GET_PLL_
 158              		.loc 1 285 82 is_stmt 0 discriminator 1 view .LVU31
 159 0042 A64B     		ldr	r3, .L119
 160 0044 5B68     		ldr	r3, [r3, #4]
 161 0046 C022     		movs	r2, #192
 162 0048 5202     		lsls	r2, r2, #9
 163 004a 1340     		ands	r3, r2
ARM GAS  C:\Users\0.0\AppData\Local\Temp\cceJoyYc.s 			page 9


 285:Drivers/STM32F0xx_HAL_Driver/Src/stm32f0xx_hal_rcc.c ****        || ((__HAL_RCC_GET_SYSCLK_SOURCE() == RCC_SYSCLKSOURCE_STATUS_PLLCLK) && (__HAL_RCC_GET_PLL_
 164              		.loc 1 285 78 discriminator 1 view .LVU32
 165 004c 8022     		movs	r2, #128
 166 004e 5202     		lsls	r2, r2, #9
 167 0050 9342     		cmp	r3, r2
 168 0052 E7D1     		bne	.L7
 169              	.L6:
 287:Drivers/STM32F0xx_HAL_Driver/Src/stm32f0xx_hal_rcc.c ****       {
 170              		.loc 1 287 7 is_stmt 1 view .LVU33
 287:Drivers/STM32F0xx_HAL_Driver/Src/stm32f0xx_hal_rcc.c ****       {
 171              		.loc 1 287 11 is_stmt 0 view .LVU34
 172 0054 A14B     		ldr	r3, .L119
 173 0056 1B68     		ldr	r3, [r3]
 287:Drivers/STM32F0xx_HAL_Driver/Src/stm32f0xx_hal_rcc.c ****       {
 174              		.loc 1 287 9 view .LVU35
 175 0058 9B03     		lsls	r3, r3, #14
 176 005a 03D5     		bpl	.L5
 287:Drivers/STM32F0xx_HAL_Driver/Src/stm32f0xx_hal_rcc.c ****       {
 177              		.loc 1 287 78 discriminator 1 view .LVU36
 178 005c 6368     		ldr	r3, [r4, #4]
 287:Drivers/STM32F0xx_HAL_Driver/Src/stm32f0xx_hal_rcc.c ****       {
 179              		.loc 1 287 57 discriminator 1 view .LVU37
 180 005e 002B     		cmp	r3, #0
 181 0060 00D1     		bne	.LCB139
 182 0062 36E2     		b	.L104	@long jump
 183              	.LCB139:
 184              	.LVL2:
 185              	.L5:
 296:Drivers/STM32F0xx_HAL_Driver/Src/stm32f0xx_hal_rcc.c ****       
 297:Drivers/STM32F0xx_HAL_Driver/Src/stm32f0xx_hal_rcc.c **** 
 298:Drivers/STM32F0xx_HAL_Driver/Src/stm32f0xx_hal_rcc.c ****        /* Check the HSE State */
 299:Drivers/STM32F0xx_HAL_Driver/Src/stm32f0xx_hal_rcc.c ****       if(RCC_OscInitStruct->HSEState != RCC_HSE_OFF)
 300:Drivers/STM32F0xx_HAL_Driver/Src/stm32f0xx_hal_rcc.c ****       {
 301:Drivers/STM32F0xx_HAL_Driver/Src/stm32f0xx_hal_rcc.c ****         /* Get Start Tick */
 302:Drivers/STM32F0xx_HAL_Driver/Src/stm32f0xx_hal_rcc.c ****         tickstart = HAL_GetTick();
 303:Drivers/STM32F0xx_HAL_Driver/Src/stm32f0xx_hal_rcc.c ****         
 304:Drivers/STM32F0xx_HAL_Driver/Src/stm32f0xx_hal_rcc.c ****         /* Wait till HSE is ready */
 305:Drivers/STM32F0xx_HAL_Driver/Src/stm32f0xx_hal_rcc.c ****         while(__HAL_RCC_GET_FLAG(RCC_FLAG_HSERDY) == RESET)
 306:Drivers/STM32F0xx_HAL_Driver/Src/stm32f0xx_hal_rcc.c ****         {
 307:Drivers/STM32F0xx_HAL_Driver/Src/stm32f0xx_hal_rcc.c ****           if((HAL_GetTick() - tickstart ) > HSE_TIMEOUT_VALUE)
 308:Drivers/STM32F0xx_HAL_Driver/Src/stm32f0xx_hal_rcc.c ****           {
 309:Drivers/STM32F0xx_HAL_Driver/Src/stm32f0xx_hal_rcc.c ****             return HAL_TIMEOUT;
 310:Drivers/STM32F0xx_HAL_Driver/Src/stm32f0xx_hal_rcc.c ****           }
 311:Drivers/STM32F0xx_HAL_Driver/Src/stm32f0xx_hal_rcc.c ****         }
 312:Drivers/STM32F0xx_HAL_Driver/Src/stm32f0xx_hal_rcc.c ****       }
 313:Drivers/STM32F0xx_HAL_Driver/Src/stm32f0xx_hal_rcc.c ****       else
 314:Drivers/STM32F0xx_HAL_Driver/Src/stm32f0xx_hal_rcc.c ****       {
 315:Drivers/STM32F0xx_HAL_Driver/Src/stm32f0xx_hal_rcc.c ****         /* Get Start Tick */
 316:Drivers/STM32F0xx_HAL_Driver/Src/stm32f0xx_hal_rcc.c ****         tickstart = HAL_GetTick();
 317:Drivers/STM32F0xx_HAL_Driver/Src/stm32f0xx_hal_rcc.c ****         
 318:Drivers/STM32F0xx_HAL_Driver/Src/stm32f0xx_hal_rcc.c ****         /* Wait till HSE is disabled */
 319:Drivers/STM32F0xx_HAL_Driver/Src/stm32f0xx_hal_rcc.c ****         while(__HAL_RCC_GET_FLAG(RCC_FLAG_HSERDY) != RESET)
 320:Drivers/STM32F0xx_HAL_Driver/Src/stm32f0xx_hal_rcc.c ****         {
 321:Drivers/STM32F0xx_HAL_Driver/Src/stm32f0xx_hal_rcc.c ****            if((HAL_GetTick() - tickstart ) > HSE_TIMEOUT_VALUE)
 322:Drivers/STM32F0xx_HAL_Driver/Src/stm32f0xx_hal_rcc.c ****           {
 323:Drivers/STM32F0xx_HAL_Driver/Src/stm32f0xx_hal_rcc.c ****             return HAL_TIMEOUT;
 324:Drivers/STM32F0xx_HAL_Driver/Src/stm32f0xx_hal_rcc.c ****           }
ARM GAS  C:\Users\0.0\AppData\Local\Temp\cceJoyYc.s 			page 10


 325:Drivers/STM32F0xx_HAL_Driver/Src/stm32f0xx_hal_rcc.c ****         }
 326:Drivers/STM32F0xx_HAL_Driver/Src/stm32f0xx_hal_rcc.c ****       }
 327:Drivers/STM32F0xx_HAL_Driver/Src/stm32f0xx_hal_rcc.c ****     }
 328:Drivers/STM32F0xx_HAL_Driver/Src/stm32f0xx_hal_rcc.c ****   }
 329:Drivers/STM32F0xx_HAL_Driver/Src/stm32f0xx_hal_rcc.c ****   /*----------------------------- HSI Configuration --------------------------*/ 
 330:Drivers/STM32F0xx_HAL_Driver/Src/stm32f0xx_hal_rcc.c ****   if(((RCC_OscInitStruct->OscillatorType) & RCC_OSCILLATORTYPE_HSI) == RCC_OSCILLATORTYPE_HSI)
 186              		.loc 1 330 3 is_stmt 1 view .LVU38
 187              		.loc 1 330 25 is_stmt 0 view .LVU39
 188 0064 2368     		ldr	r3, [r4]
 189              		.loc 1 330 5 view .LVU40
 190 0066 9B07     		lsls	r3, r3, #30
 191 0068 77D5     		bpl	.L18
 331:Drivers/STM32F0xx_HAL_Driver/Src/stm32f0xx_hal_rcc.c ****   {
 332:Drivers/STM32F0xx_HAL_Driver/Src/stm32f0xx_hal_rcc.c ****     /* Check the parameters */
 333:Drivers/STM32F0xx_HAL_Driver/Src/stm32f0xx_hal_rcc.c ****     assert_param(IS_RCC_HSI(RCC_OscInitStruct->HSIState));
 192              		.loc 1 333 5 is_stmt 1 view .LVU41
 334:Drivers/STM32F0xx_HAL_Driver/Src/stm32f0xx_hal_rcc.c ****     assert_param(IS_RCC_CALIBRATION_VALUE(RCC_OscInitStruct->HSICalibrationValue));
 193              		.loc 1 334 5 view .LVU42
 335:Drivers/STM32F0xx_HAL_Driver/Src/stm32f0xx_hal_rcc.c ****     
 336:Drivers/STM32F0xx_HAL_Driver/Src/stm32f0xx_hal_rcc.c ****     /* Check if HSI is used as system clock or as PLL source when PLL is selected as system clock *
 337:Drivers/STM32F0xx_HAL_Driver/Src/stm32f0xx_hal_rcc.c ****     if((__HAL_RCC_GET_SYSCLK_SOURCE() == RCC_SYSCLKSOURCE_STATUS_HSI) 
 194              		.loc 1 337 5 view .LVU43
 195              		.loc 1 337 9 is_stmt 0 view .LVU44
 196 006a 9C4B     		ldr	r3, .L119
 197 006c 5B68     		ldr	r3, [r3, #4]
 198 006e 0C22     		movs	r2, #12
 199              		.loc 1 337 7 view .LVU45
 200 0070 1A42     		tst	r2, r3
 201 0072 62D0     		beq	.L19
 338:Drivers/STM32F0xx_HAL_Driver/Src/stm32f0xx_hal_rcc.c ****        || ((__HAL_RCC_GET_SYSCLK_SOURCE() == RCC_SYSCLKSOURCE_STATUS_PLLCLK) && (__HAL_RCC_GET_PLL_
 202              		.loc 1 338 13 view .LVU46
 203 0074 994B     		ldr	r3, .L119
 204 0076 5A68     		ldr	r2, [r3, #4]
 205 0078 0C23     		movs	r3, #12
 206 007a 1340     		ands	r3, r2
 207              		.loc 1 338 8 view .LVU47
 208 007c 082B     		cmp	r3, #8
 209 007e 53D0     		beq	.L105
 210              	.L20:
 339:Drivers/STM32F0xx_HAL_Driver/Src/stm32f0xx_hal_rcc.c ****     {
 340:Drivers/STM32F0xx_HAL_Driver/Src/stm32f0xx_hal_rcc.c ****       /* When HSI is used as system clock it will not disabled */
 341:Drivers/STM32F0xx_HAL_Driver/Src/stm32f0xx_hal_rcc.c ****       if((__HAL_RCC_GET_FLAG(RCC_FLAG_HSIRDY) != RESET) && (RCC_OscInitStruct->HSIState != RCC_HSI_
 342:Drivers/STM32F0xx_HAL_Driver/Src/stm32f0xx_hal_rcc.c ****       {
 343:Drivers/STM32F0xx_HAL_Driver/Src/stm32f0xx_hal_rcc.c ****         return HAL_ERROR;
 344:Drivers/STM32F0xx_HAL_Driver/Src/stm32f0xx_hal_rcc.c ****       }
 345:Drivers/STM32F0xx_HAL_Driver/Src/stm32f0xx_hal_rcc.c ****       /* Otherwise, just the calibration is allowed */
 346:Drivers/STM32F0xx_HAL_Driver/Src/stm32f0xx_hal_rcc.c ****       else
 347:Drivers/STM32F0xx_HAL_Driver/Src/stm32f0xx_hal_rcc.c ****       {
 348:Drivers/STM32F0xx_HAL_Driver/Src/stm32f0xx_hal_rcc.c ****         /* Adjusts the Internal High Speed oscillator (HSI) calibration value.*/
 349:Drivers/STM32F0xx_HAL_Driver/Src/stm32f0xx_hal_rcc.c ****         __HAL_RCC_HSI_CALIBRATIONVALUE_ADJUST(RCC_OscInitStruct->HSICalibrationValue);
 350:Drivers/STM32F0xx_HAL_Driver/Src/stm32f0xx_hal_rcc.c ****       }
 351:Drivers/STM32F0xx_HAL_Driver/Src/stm32f0xx_hal_rcc.c ****     }
 352:Drivers/STM32F0xx_HAL_Driver/Src/stm32f0xx_hal_rcc.c ****     else
 353:Drivers/STM32F0xx_HAL_Driver/Src/stm32f0xx_hal_rcc.c ****     {
 354:Drivers/STM32F0xx_HAL_Driver/Src/stm32f0xx_hal_rcc.c ****       /* Check the HSI State */
 355:Drivers/STM32F0xx_HAL_Driver/Src/stm32f0xx_hal_rcc.c ****       if(RCC_OscInitStruct->HSIState != RCC_HSI_OFF)
 211              		.loc 1 355 7 is_stmt 1 view .LVU48
ARM GAS  C:\Users\0.0\AppData\Local\Temp\cceJoyYc.s 			page 11


 212              		.loc 1 355 27 is_stmt 0 view .LVU49
 213 0080 E368     		ldr	r3, [r4, #12]
 214              		.loc 1 355 9 view .LVU50
 215 0082 002B     		cmp	r3, #0
 216 0084 00D1     		bne	.LCB168
 217 0086 8AE0     		b	.L22	@long jump
 218              	.LCB168:
 356:Drivers/STM32F0xx_HAL_Driver/Src/stm32f0xx_hal_rcc.c ****       {
 357:Drivers/STM32F0xx_HAL_Driver/Src/stm32f0xx_hal_rcc.c ****        /* Enable the Internal High Speed oscillator (HSI). */
 358:Drivers/STM32F0xx_HAL_Driver/Src/stm32f0xx_hal_rcc.c ****         __HAL_RCC_HSI_ENABLE();
 219              		.loc 1 358 9 is_stmt 1 view .LVU51
 220 0088 944A     		ldr	r2, .L119
 221 008a 1368     		ldr	r3, [r2]
 222 008c 0121     		movs	r1, #1
 223 008e 0B43     		orrs	r3, r1
 224 0090 1360     		str	r3, [r2]
 359:Drivers/STM32F0xx_HAL_Driver/Src/stm32f0xx_hal_rcc.c ****         
 360:Drivers/STM32F0xx_HAL_Driver/Src/stm32f0xx_hal_rcc.c ****         /* Get Start Tick */
 361:Drivers/STM32F0xx_HAL_Driver/Src/stm32f0xx_hal_rcc.c ****         tickstart = HAL_GetTick();
 225              		.loc 1 361 9 view .LVU52
 226              		.loc 1 361 21 is_stmt 0 view .LVU53
 227 0092 FFF7FEFF 		bl	HAL_GetTick
 228              	.LVL3:
 229 0096 0500     		movs	r5, r0
 230              	.LVL4:
 362:Drivers/STM32F0xx_HAL_Driver/Src/stm32f0xx_hal_rcc.c ****         
 363:Drivers/STM32F0xx_HAL_Driver/Src/stm32f0xx_hal_rcc.c ****         /* Wait till HSI is ready */
 364:Drivers/STM32F0xx_HAL_Driver/Src/stm32f0xx_hal_rcc.c ****         while(__HAL_RCC_GET_FLAG(RCC_FLAG_HSIRDY) == RESET)
 231              		.loc 1 364 9 is_stmt 1 view .LVU54
 232              	.L23:
 233              		.loc 1 364 51 view .LVU55
 234              		.loc 1 364 15 is_stmt 0 view .LVU56
 235 0098 904B     		ldr	r3, .L119
 236 009a 1B68     		ldr	r3, [r3]
 237              		.loc 1 364 51 view .LVU57
 238 009c 9B07     		lsls	r3, r3, #30
 239 009e 75D4     		bmi	.L106
 365:Drivers/STM32F0xx_HAL_Driver/Src/stm32f0xx_hal_rcc.c ****         {
 366:Drivers/STM32F0xx_HAL_Driver/Src/stm32f0xx_hal_rcc.c ****           if((HAL_GetTick() - tickstart ) > HSI_TIMEOUT_VALUE)
 240              		.loc 1 366 11 is_stmt 1 view .LVU58
 241              		.loc 1 366 15 is_stmt 0 view .LVU59
 242 00a0 FFF7FEFF 		bl	HAL_GetTick
 243              	.LVL5:
 244              		.loc 1 366 29 discriminator 1 view .LVU60
 245 00a4 401B     		subs	r0, r0, r5
 246              		.loc 1 366 13 discriminator 1 view .LVU61
 247 00a6 0228     		cmp	r0, #2
 248 00a8 F6D9     		bls	.L23
 367:Drivers/STM32F0xx_HAL_Driver/Src/stm32f0xx_hal_rcc.c ****           {
 368:Drivers/STM32F0xx_HAL_Driver/Src/stm32f0xx_hal_rcc.c ****             return HAL_TIMEOUT;
 249              		.loc 1 368 20 view .LVU62
 250 00aa 0320     		movs	r0, #3
 251 00ac 18E2     		b	.L8
 252              	.LVL6:
 253              	.L103:
 295:Drivers/STM32F0xx_HAL_Driver/Src/stm32f0xx_hal_rcc.c ****       
 254              		.loc 1 295 7 is_stmt 1 discriminator 1 view .LVU63
ARM GAS  C:\Users\0.0\AppData\Local\Temp\cceJoyYc.s 			page 12


 255 00ae 8B4A     		ldr	r2, .L119
 256 00b0 1168     		ldr	r1, [r2]
 257 00b2 8023     		movs	r3, #128
 258 00b4 5B02     		lsls	r3, r3, #9
 259 00b6 0B43     		orrs	r3, r1
 260 00b8 1360     		str	r3, [r2]
 261              	.L10:
 295:Drivers/STM32F0xx_HAL_Driver/Src/stm32f0xx_hal_rcc.c ****       
 262              		.loc 1 295 7 discriminator 10 view .LVU64
 299:Drivers/STM32F0xx_HAL_Driver/Src/stm32f0xx_hal_rcc.c ****       {
 263              		.loc 1 299 7 view .LVU65
 299:Drivers/STM32F0xx_HAL_Driver/Src/stm32f0xx_hal_rcc.c ****       {
 264              		.loc 1 299 27 is_stmt 0 view .LVU66
 265 00ba 6368     		ldr	r3, [r4, #4]
 299:Drivers/STM32F0xx_HAL_Driver/Src/stm32f0xx_hal_rcc.c ****       {
 266              		.loc 1 299 9 view .LVU67
 267 00bc 002B     		cmp	r3, #0
 268 00be 25D0     		beq	.L13
 302:Drivers/STM32F0xx_HAL_Driver/Src/stm32f0xx_hal_rcc.c ****         
 269              		.loc 1 302 9 is_stmt 1 view .LVU68
 302:Drivers/STM32F0xx_HAL_Driver/Src/stm32f0xx_hal_rcc.c ****         
 270              		.loc 1 302 21 is_stmt 0 view .LVU69
 271 00c0 FFF7FEFF 		bl	HAL_GetTick
 272              	.LVL7:
 302:Drivers/STM32F0xx_HAL_Driver/Src/stm32f0xx_hal_rcc.c ****         
 273              		.loc 1 302 21 view .LVU70
 274 00c4 0500     		movs	r5, r0
 275              	.LVL8:
 305:Drivers/STM32F0xx_HAL_Driver/Src/stm32f0xx_hal_rcc.c ****         {
 276              		.loc 1 305 9 is_stmt 1 view .LVU71
 277              	.L14:
 305:Drivers/STM32F0xx_HAL_Driver/Src/stm32f0xx_hal_rcc.c ****         {
 278              		.loc 1 305 51 view .LVU72
 305:Drivers/STM32F0xx_HAL_Driver/Src/stm32f0xx_hal_rcc.c ****         {
 279              		.loc 1 305 15 is_stmt 0 view .LVU73
 280 00c6 854B     		ldr	r3, .L119
 281 00c8 1B68     		ldr	r3, [r3]
 305:Drivers/STM32F0xx_HAL_Driver/Src/stm32f0xx_hal_rcc.c ****         {
 282              		.loc 1 305 51 view .LVU74
 283 00ca 9B03     		lsls	r3, r3, #14
 284 00cc CAD4     		bmi	.L5
 307:Drivers/STM32F0xx_HAL_Driver/Src/stm32f0xx_hal_rcc.c ****           {
 285              		.loc 1 307 11 is_stmt 1 view .LVU75
 307:Drivers/STM32F0xx_HAL_Driver/Src/stm32f0xx_hal_rcc.c ****           {
 286              		.loc 1 307 15 is_stmt 0 view .LVU76
 287 00ce FFF7FEFF 		bl	HAL_GetTick
 288              	.LVL9:
 307:Drivers/STM32F0xx_HAL_Driver/Src/stm32f0xx_hal_rcc.c ****           {
 289              		.loc 1 307 29 discriminator 1 view .LVU77
 290 00d2 401B     		subs	r0, r0, r5
 307:Drivers/STM32F0xx_HAL_Driver/Src/stm32f0xx_hal_rcc.c ****           {
 291              		.loc 1 307 13 discriminator 1 view .LVU78
 292 00d4 6428     		cmp	r0, #100
 293 00d6 F6D9     		bls	.L14
 309:Drivers/STM32F0xx_HAL_Driver/Src/stm32f0xx_hal_rcc.c ****           }
 294              		.loc 1 309 20 view .LVU79
 295 00d8 0320     		movs	r0, #3
ARM GAS  C:\Users\0.0\AppData\Local\Temp\cceJoyYc.s 			page 13


 296 00da 01E2     		b	.L8
 297              	.LVL10:
 298              	.L11:
 295:Drivers/STM32F0xx_HAL_Driver/Src/stm32f0xx_hal_rcc.c ****       
 299              		.loc 1 295 7 is_stmt 1 discriminator 5 view .LVU80
 300 00dc 052B     		cmp	r3, #5
 301 00de 09D0     		beq	.L107
 295:Drivers/STM32F0xx_HAL_Driver/Src/stm32f0xx_hal_rcc.c ****       
 302              		.loc 1 295 7 discriminator 8 view .LVU81
 303 00e0 7E4B     		ldr	r3, .L119
 304 00e2 1A68     		ldr	r2, [r3]
 305 00e4 7E49     		ldr	r1, .L119+4
 306 00e6 0A40     		ands	r2, r1
 307 00e8 1A60     		str	r2, [r3]
 295:Drivers/STM32F0xx_HAL_Driver/Src/stm32f0xx_hal_rcc.c ****       
 308              		.loc 1 295 7 discriminator 8 view .LVU82
 309 00ea 1A68     		ldr	r2, [r3]
 310 00ec 7D49     		ldr	r1, .L119+8
 311 00ee 0A40     		ands	r2, r1
 312 00f0 1A60     		str	r2, [r3]
 313 00f2 E2E7     		b	.L10
 314              	.L107:
 295:Drivers/STM32F0xx_HAL_Driver/Src/stm32f0xx_hal_rcc.c ****       
 315              		.loc 1 295 7 discriminator 7 view .LVU83
 316 00f4 794B     		ldr	r3, .L119
 317 00f6 1968     		ldr	r1, [r3]
 318 00f8 8022     		movs	r2, #128
 319 00fa D202     		lsls	r2, r2, #11
 320 00fc 0A43     		orrs	r2, r1
 321 00fe 1A60     		str	r2, [r3]
 295:Drivers/STM32F0xx_HAL_Driver/Src/stm32f0xx_hal_rcc.c ****       
 322              		.loc 1 295 7 discriminator 7 view .LVU84
 323 0100 1968     		ldr	r1, [r3]
 324 0102 8022     		movs	r2, #128
 325 0104 5202     		lsls	r2, r2, #9
 326 0106 0A43     		orrs	r2, r1
 327 0108 1A60     		str	r2, [r3]
 328 010a D6E7     		b	.L10
 329              	.L13:
 316:Drivers/STM32F0xx_HAL_Driver/Src/stm32f0xx_hal_rcc.c ****         
 330              		.loc 1 316 9 view .LVU85
 316:Drivers/STM32F0xx_HAL_Driver/Src/stm32f0xx_hal_rcc.c ****         
 331              		.loc 1 316 21 is_stmt 0 view .LVU86
 332 010c FFF7FEFF 		bl	HAL_GetTick
 333              	.LVL11:
 316:Drivers/STM32F0xx_HAL_Driver/Src/stm32f0xx_hal_rcc.c ****         
 334              		.loc 1 316 21 view .LVU87
 335 0110 0500     		movs	r5, r0
 336              	.LVL12:
 319:Drivers/STM32F0xx_HAL_Driver/Src/stm32f0xx_hal_rcc.c ****         {
 337              		.loc 1 319 9 is_stmt 1 view .LVU88
 338              	.L16:
 319:Drivers/STM32F0xx_HAL_Driver/Src/stm32f0xx_hal_rcc.c ****         {
 339              		.loc 1 319 51 view .LVU89
 319:Drivers/STM32F0xx_HAL_Driver/Src/stm32f0xx_hal_rcc.c ****         {
 340              		.loc 1 319 15 is_stmt 0 view .LVU90
 341 0112 724B     		ldr	r3, .L119
ARM GAS  C:\Users\0.0\AppData\Local\Temp\cceJoyYc.s 			page 14


 342 0114 1B68     		ldr	r3, [r3]
 319:Drivers/STM32F0xx_HAL_Driver/Src/stm32f0xx_hal_rcc.c ****         {
 343              		.loc 1 319 51 view .LVU91
 344 0116 9B03     		lsls	r3, r3, #14
 345 0118 A4D5     		bpl	.L5
 321:Drivers/STM32F0xx_HAL_Driver/Src/stm32f0xx_hal_rcc.c ****           {
 346              		.loc 1 321 12 is_stmt 1 view .LVU92
 321:Drivers/STM32F0xx_HAL_Driver/Src/stm32f0xx_hal_rcc.c ****           {
 347              		.loc 1 321 16 is_stmt 0 view .LVU93
 348 011a FFF7FEFF 		bl	HAL_GetTick
 349              	.LVL13:
 321:Drivers/STM32F0xx_HAL_Driver/Src/stm32f0xx_hal_rcc.c ****           {
 350              		.loc 1 321 30 discriminator 1 view .LVU94
 351 011e 401B     		subs	r0, r0, r5
 321:Drivers/STM32F0xx_HAL_Driver/Src/stm32f0xx_hal_rcc.c ****           {
 352              		.loc 1 321 14 discriminator 1 view .LVU95
 353 0120 6428     		cmp	r0, #100
 354 0122 F6D9     		bls	.L16
 323:Drivers/STM32F0xx_HAL_Driver/Src/stm32f0xx_hal_rcc.c ****           }
 355              		.loc 1 323 20 view .LVU96
 356 0124 0320     		movs	r0, #3
 357 0126 DBE1     		b	.L8
 358              	.LVL14:
 359              	.L105:
 338:Drivers/STM32F0xx_HAL_Driver/Src/stm32f0xx_hal_rcc.c ****     {
 360              		.loc 1 338 82 discriminator 1 view .LVU97
 361 0128 6C4B     		ldr	r3, .L119
 362 012a 5B68     		ldr	r3, [r3, #4]
 363 012c C022     		movs	r2, #192
 364 012e 5202     		lsls	r2, r2, #9
 365 0130 1340     		ands	r3, r2
 338:Drivers/STM32F0xx_HAL_Driver/Src/stm32f0xx_hal_rcc.c ****     {
 366              		.loc 1 338 78 discriminator 1 view .LVU98
 367 0132 8022     		movs	r2, #128
 368 0134 1202     		lsls	r2, r2, #8
 369 0136 9342     		cmp	r3, r2
 370 0138 A2D1     		bne	.L20
 371              	.L19:
 341:Drivers/STM32F0xx_HAL_Driver/Src/stm32f0xx_hal_rcc.c ****       {
 372              		.loc 1 341 7 is_stmt 1 view .LVU99
 341:Drivers/STM32F0xx_HAL_Driver/Src/stm32f0xx_hal_rcc.c ****       {
 373              		.loc 1 341 11 is_stmt 0 view .LVU100
 374 013a 684B     		ldr	r3, .L119
 375 013c 1B68     		ldr	r3, [r3]
 341:Drivers/STM32F0xx_HAL_Driver/Src/stm32f0xx_hal_rcc.c ****       {
 376              		.loc 1 341 9 view .LVU101
 377 013e 9B07     		lsls	r3, r3, #30
 378 0140 03D5     		bpl	.L21
 341:Drivers/STM32F0xx_HAL_Driver/Src/stm32f0xx_hal_rcc.c ****       {
 379              		.loc 1 341 78 discriminator 1 view .LVU102
 380 0142 E368     		ldr	r3, [r4, #12]
 341:Drivers/STM32F0xx_HAL_Driver/Src/stm32f0xx_hal_rcc.c ****       {
 381              		.loc 1 341 57 discriminator 1 view .LVU103
 382 0144 012B     		cmp	r3, #1
 383 0146 00D0     		beq	.LCB330
 384 0148 C5E1     		b	.L73	@long jump
 385              	.LCB330:
ARM GAS  C:\Users\0.0\AppData\Local\Temp\cceJoyYc.s 			page 15


 386              	.L21:
 349:Drivers/STM32F0xx_HAL_Driver/Src/stm32f0xx_hal_rcc.c ****       }
 387              		.loc 1 349 9 is_stmt 1 view .LVU104
 388 014a 6449     		ldr	r1, .L119
 389 014c 0B68     		ldr	r3, [r1]
 390 014e F822     		movs	r2, #248
 391 0150 9343     		bics	r3, r2
 392 0152 2269     		ldr	r2, [r4, #16]
 393 0154 D200     		lsls	r2, r2, #3
 394 0156 1343     		orrs	r3, r2
 395 0158 0B60     		str	r3, [r1]
 396              	.L18:
 369:Drivers/STM32F0xx_HAL_Driver/Src/stm32f0xx_hal_rcc.c ****           }
 370:Drivers/STM32F0xx_HAL_Driver/Src/stm32f0xx_hal_rcc.c ****         }
 371:Drivers/STM32F0xx_HAL_Driver/Src/stm32f0xx_hal_rcc.c ****                 
 372:Drivers/STM32F0xx_HAL_Driver/Src/stm32f0xx_hal_rcc.c ****         /* Adjusts the Internal High Speed oscillator (HSI) calibration value.*/
 373:Drivers/STM32F0xx_HAL_Driver/Src/stm32f0xx_hal_rcc.c ****         __HAL_RCC_HSI_CALIBRATIONVALUE_ADJUST(RCC_OscInitStruct->HSICalibrationValue);
 374:Drivers/STM32F0xx_HAL_Driver/Src/stm32f0xx_hal_rcc.c ****       }
 375:Drivers/STM32F0xx_HAL_Driver/Src/stm32f0xx_hal_rcc.c ****       else
 376:Drivers/STM32F0xx_HAL_Driver/Src/stm32f0xx_hal_rcc.c ****       {
 377:Drivers/STM32F0xx_HAL_Driver/Src/stm32f0xx_hal_rcc.c ****         /* Disable the Internal High Speed oscillator (HSI). */
 378:Drivers/STM32F0xx_HAL_Driver/Src/stm32f0xx_hal_rcc.c ****         __HAL_RCC_HSI_DISABLE();
 379:Drivers/STM32F0xx_HAL_Driver/Src/stm32f0xx_hal_rcc.c ****         
 380:Drivers/STM32F0xx_HAL_Driver/Src/stm32f0xx_hal_rcc.c ****         /* Get Start Tick */
 381:Drivers/STM32F0xx_HAL_Driver/Src/stm32f0xx_hal_rcc.c ****         tickstart = HAL_GetTick();
 382:Drivers/STM32F0xx_HAL_Driver/Src/stm32f0xx_hal_rcc.c ****         
 383:Drivers/STM32F0xx_HAL_Driver/Src/stm32f0xx_hal_rcc.c ****         /* Wait till HSI is disabled */
 384:Drivers/STM32F0xx_HAL_Driver/Src/stm32f0xx_hal_rcc.c ****         while(__HAL_RCC_GET_FLAG(RCC_FLAG_HSIRDY) != RESET)
 385:Drivers/STM32F0xx_HAL_Driver/Src/stm32f0xx_hal_rcc.c ****         {
 386:Drivers/STM32F0xx_HAL_Driver/Src/stm32f0xx_hal_rcc.c ****           if((HAL_GetTick() - tickstart ) > HSI_TIMEOUT_VALUE)
 387:Drivers/STM32F0xx_HAL_Driver/Src/stm32f0xx_hal_rcc.c ****           {
 388:Drivers/STM32F0xx_HAL_Driver/Src/stm32f0xx_hal_rcc.c ****             return HAL_TIMEOUT;
 389:Drivers/STM32F0xx_HAL_Driver/Src/stm32f0xx_hal_rcc.c ****           }
 390:Drivers/STM32F0xx_HAL_Driver/Src/stm32f0xx_hal_rcc.c ****         }
 391:Drivers/STM32F0xx_HAL_Driver/Src/stm32f0xx_hal_rcc.c ****       }
 392:Drivers/STM32F0xx_HAL_Driver/Src/stm32f0xx_hal_rcc.c ****     }
 393:Drivers/STM32F0xx_HAL_Driver/Src/stm32f0xx_hal_rcc.c ****   }
 394:Drivers/STM32F0xx_HAL_Driver/Src/stm32f0xx_hal_rcc.c ****   /*------------------------------ LSI Configuration -------------------------*/ 
 395:Drivers/STM32F0xx_HAL_Driver/Src/stm32f0xx_hal_rcc.c ****   if(((RCC_OscInitStruct->OscillatorType) & RCC_OSCILLATORTYPE_LSI) == RCC_OSCILLATORTYPE_LSI)
 397              		.loc 1 395 3 view .LVU105
 398              		.loc 1 395 25 is_stmt 0 view .LVU106
 399 015a 2368     		ldr	r3, [r4]
 400              		.loc 1 395 5 view .LVU107
 401 015c 1B07     		lsls	r3, r3, #28
 402 015e 44D5     		bpl	.L27
 396:Drivers/STM32F0xx_HAL_Driver/Src/stm32f0xx_hal_rcc.c ****   {
 397:Drivers/STM32F0xx_HAL_Driver/Src/stm32f0xx_hal_rcc.c ****     /* Check the parameters */
 398:Drivers/STM32F0xx_HAL_Driver/Src/stm32f0xx_hal_rcc.c ****     assert_param(IS_RCC_LSI(RCC_OscInitStruct->LSIState));
 403              		.loc 1 398 5 is_stmt 1 view .LVU108
 399:Drivers/STM32F0xx_HAL_Driver/Src/stm32f0xx_hal_rcc.c ****     
 400:Drivers/STM32F0xx_HAL_Driver/Src/stm32f0xx_hal_rcc.c ****     /* Check the LSI State */
 401:Drivers/STM32F0xx_HAL_Driver/Src/stm32f0xx_hal_rcc.c ****     if(RCC_OscInitStruct->LSIState != RCC_LSI_OFF)
 404              		.loc 1 401 5 view .LVU109
 405              		.loc 1 401 25 is_stmt 0 view .LVU110
 406 0160 E369     		ldr	r3, [r4, #28]
 407              		.loc 1 401 7 view .LVU111
 408 0162 002B     		cmp	r3, #0
ARM GAS  C:\Users\0.0\AppData\Local\Temp\cceJoyYc.s 			page 16


 409 0164 2ED0     		beq	.L28
 402:Drivers/STM32F0xx_HAL_Driver/Src/stm32f0xx_hal_rcc.c ****     {
 403:Drivers/STM32F0xx_HAL_Driver/Src/stm32f0xx_hal_rcc.c ****       /* Enable the Internal Low Speed oscillator (LSI). */
 404:Drivers/STM32F0xx_HAL_Driver/Src/stm32f0xx_hal_rcc.c ****       __HAL_RCC_LSI_ENABLE();
 410              		.loc 1 404 7 is_stmt 1 view .LVU112
 411 0166 5D4A     		ldr	r2, .L119
 412 0168 536A     		ldr	r3, [r2, #36]
 413 016a 0121     		movs	r1, #1
 414 016c 0B43     		orrs	r3, r1
 415 016e 5362     		str	r3, [r2, #36]
 405:Drivers/STM32F0xx_HAL_Driver/Src/stm32f0xx_hal_rcc.c ****       
 406:Drivers/STM32F0xx_HAL_Driver/Src/stm32f0xx_hal_rcc.c ****       /* Get Start Tick */
 407:Drivers/STM32F0xx_HAL_Driver/Src/stm32f0xx_hal_rcc.c ****       tickstart = HAL_GetTick();
 416              		.loc 1 407 7 view .LVU113
 417              		.loc 1 407 19 is_stmt 0 view .LVU114
 418 0170 FFF7FEFF 		bl	HAL_GetTick
 419              	.LVL15:
 420 0174 0500     		movs	r5, r0
 421              	.LVL16:
 408:Drivers/STM32F0xx_HAL_Driver/Src/stm32f0xx_hal_rcc.c ****       
 409:Drivers/STM32F0xx_HAL_Driver/Src/stm32f0xx_hal_rcc.c ****       /* Wait till LSI is ready */  
 410:Drivers/STM32F0xx_HAL_Driver/Src/stm32f0xx_hal_rcc.c ****       while(__HAL_RCC_GET_FLAG(RCC_FLAG_LSIRDY) == RESET)
 422              		.loc 1 410 7 is_stmt 1 view .LVU115
 423              	.L29:
 424              		.loc 1 410 49 view .LVU116
 425              		.loc 1 410 13 is_stmt 0 view .LVU117
 426 0176 594B     		ldr	r3, .L119
 427 0178 5B6A     		ldr	r3, [r3, #36]
 428              		.loc 1 410 49 view .LVU118
 429 017a 9B07     		lsls	r3, r3, #30
 430 017c 35D4     		bmi	.L27
 411:Drivers/STM32F0xx_HAL_Driver/Src/stm32f0xx_hal_rcc.c ****       {
 412:Drivers/STM32F0xx_HAL_Driver/Src/stm32f0xx_hal_rcc.c ****         if((HAL_GetTick() - tickstart ) > LSI_TIMEOUT_VALUE)
 431              		.loc 1 412 9 is_stmt 1 view .LVU119
 432              		.loc 1 412 13 is_stmt 0 view .LVU120
 433 017e FFF7FEFF 		bl	HAL_GetTick
 434              	.LVL17:
 435              		.loc 1 412 27 discriminator 1 view .LVU121
 436 0182 401B     		subs	r0, r0, r5
 437              		.loc 1 412 11 discriminator 1 view .LVU122
 438 0184 0228     		cmp	r0, #2
 439 0186 F6D9     		bls	.L29
 413:Drivers/STM32F0xx_HAL_Driver/Src/stm32f0xx_hal_rcc.c ****         {
 414:Drivers/STM32F0xx_HAL_Driver/Src/stm32f0xx_hal_rcc.c ****           return HAL_TIMEOUT;
 440              		.loc 1 414 18 view .LVU123
 441 0188 0320     		movs	r0, #3
 442 018a A9E1     		b	.L8
 443              	.L106:
 373:Drivers/STM32F0xx_HAL_Driver/Src/stm32f0xx_hal_rcc.c ****       }
 444              		.loc 1 373 9 is_stmt 1 view .LVU124
 445 018c 5349     		ldr	r1, .L119
 446 018e 0B68     		ldr	r3, [r1]
 447 0190 F822     		movs	r2, #248
 448 0192 9343     		bics	r3, r2
 449 0194 2269     		ldr	r2, [r4, #16]
 450 0196 D200     		lsls	r2, r2, #3
 451 0198 1343     		orrs	r3, r2
ARM GAS  C:\Users\0.0\AppData\Local\Temp\cceJoyYc.s 			page 17


 452 019a 0B60     		str	r3, [r1]
 453 019c DDE7     		b	.L18
 454              	.LVL18:
 455              	.L22:
 378:Drivers/STM32F0xx_HAL_Driver/Src/stm32f0xx_hal_rcc.c ****         
 456              		.loc 1 378 9 view .LVU125
 457 019e 4F4A     		ldr	r2, .L119
 458 01a0 1368     		ldr	r3, [r2]
 459 01a2 0121     		movs	r1, #1
 460 01a4 8B43     		bics	r3, r1
 461 01a6 1360     		str	r3, [r2]
 381:Drivers/STM32F0xx_HAL_Driver/Src/stm32f0xx_hal_rcc.c ****         
 462              		.loc 1 381 9 view .LVU126
 381:Drivers/STM32F0xx_HAL_Driver/Src/stm32f0xx_hal_rcc.c ****         
 463              		.loc 1 381 21 is_stmt 0 view .LVU127
 464 01a8 FFF7FEFF 		bl	HAL_GetTick
 465              	.LVL19:
 466 01ac 0500     		movs	r5, r0
 467              	.LVL20:
 384:Drivers/STM32F0xx_HAL_Driver/Src/stm32f0xx_hal_rcc.c ****         {
 468              		.loc 1 384 9 is_stmt 1 view .LVU128
 469              	.L25:
 384:Drivers/STM32F0xx_HAL_Driver/Src/stm32f0xx_hal_rcc.c ****         {
 470              		.loc 1 384 51 view .LVU129
 384:Drivers/STM32F0xx_HAL_Driver/Src/stm32f0xx_hal_rcc.c ****         {
 471              		.loc 1 384 15 is_stmt 0 view .LVU130
 472 01ae 4B4B     		ldr	r3, .L119
 473 01b0 1B68     		ldr	r3, [r3]
 384:Drivers/STM32F0xx_HAL_Driver/Src/stm32f0xx_hal_rcc.c ****         {
 474              		.loc 1 384 51 view .LVU131
 475 01b2 9B07     		lsls	r3, r3, #30
 476 01b4 D1D5     		bpl	.L18
 386:Drivers/STM32F0xx_HAL_Driver/Src/stm32f0xx_hal_rcc.c ****           {
 477              		.loc 1 386 11 is_stmt 1 view .LVU132
 386:Drivers/STM32F0xx_HAL_Driver/Src/stm32f0xx_hal_rcc.c ****           {
 478              		.loc 1 386 15 is_stmt 0 view .LVU133
 479 01b6 FFF7FEFF 		bl	HAL_GetTick
 480              	.LVL21:
 386:Drivers/STM32F0xx_HAL_Driver/Src/stm32f0xx_hal_rcc.c ****           {
 481              		.loc 1 386 29 discriminator 1 view .LVU134
 482 01ba 401B     		subs	r0, r0, r5
 386:Drivers/STM32F0xx_HAL_Driver/Src/stm32f0xx_hal_rcc.c ****           {
 483              		.loc 1 386 13 discriminator 1 view .LVU135
 484 01bc 0228     		cmp	r0, #2
 485 01be F6D9     		bls	.L25
 388:Drivers/STM32F0xx_HAL_Driver/Src/stm32f0xx_hal_rcc.c ****           }
 486              		.loc 1 388 20 view .LVU136
 487 01c0 0320     		movs	r0, #3
 488 01c2 8DE1     		b	.L8
 489              	.LVL22:
 490              	.L28:
 415:Drivers/STM32F0xx_HAL_Driver/Src/stm32f0xx_hal_rcc.c ****         }
 416:Drivers/STM32F0xx_HAL_Driver/Src/stm32f0xx_hal_rcc.c ****       }
 417:Drivers/STM32F0xx_HAL_Driver/Src/stm32f0xx_hal_rcc.c ****     }
 418:Drivers/STM32F0xx_HAL_Driver/Src/stm32f0xx_hal_rcc.c ****     else
 419:Drivers/STM32F0xx_HAL_Driver/Src/stm32f0xx_hal_rcc.c ****     {
 420:Drivers/STM32F0xx_HAL_Driver/Src/stm32f0xx_hal_rcc.c ****       /* Disable the Internal Low Speed oscillator (LSI). */
ARM GAS  C:\Users\0.0\AppData\Local\Temp\cceJoyYc.s 			page 18


 421:Drivers/STM32F0xx_HAL_Driver/Src/stm32f0xx_hal_rcc.c ****       __HAL_RCC_LSI_DISABLE();
 491              		.loc 1 421 7 is_stmt 1 view .LVU137
 492 01c4 454A     		ldr	r2, .L119
 493 01c6 536A     		ldr	r3, [r2, #36]
 494 01c8 0121     		movs	r1, #1
 495 01ca 8B43     		bics	r3, r1
 496 01cc 5362     		str	r3, [r2, #36]
 422:Drivers/STM32F0xx_HAL_Driver/Src/stm32f0xx_hal_rcc.c ****       
 423:Drivers/STM32F0xx_HAL_Driver/Src/stm32f0xx_hal_rcc.c ****       /* Get Start Tick */
 424:Drivers/STM32F0xx_HAL_Driver/Src/stm32f0xx_hal_rcc.c ****       tickstart = HAL_GetTick();
 497              		.loc 1 424 7 view .LVU138
 498              		.loc 1 424 19 is_stmt 0 view .LVU139
 499 01ce FFF7FEFF 		bl	HAL_GetTick
 500              	.LVL23:
 501 01d2 0500     		movs	r5, r0
 502              	.LVL24:
 425:Drivers/STM32F0xx_HAL_Driver/Src/stm32f0xx_hal_rcc.c ****       
 426:Drivers/STM32F0xx_HAL_Driver/Src/stm32f0xx_hal_rcc.c ****       /* Wait till LSI is disabled */  
 427:Drivers/STM32F0xx_HAL_Driver/Src/stm32f0xx_hal_rcc.c ****       while(__HAL_RCC_GET_FLAG(RCC_FLAG_LSIRDY) != RESET)
 503              		.loc 1 427 7 is_stmt 1 view .LVU140
 504              	.L31:
 505              		.loc 1 427 49 view .LVU141
 506              		.loc 1 427 13 is_stmt 0 view .LVU142
 507 01d4 414B     		ldr	r3, .L119
 508 01d6 5B6A     		ldr	r3, [r3, #36]
 509              		.loc 1 427 49 view .LVU143
 510 01d8 9B07     		lsls	r3, r3, #30
 511 01da 06D5     		bpl	.L27
 428:Drivers/STM32F0xx_HAL_Driver/Src/stm32f0xx_hal_rcc.c ****       {
 429:Drivers/STM32F0xx_HAL_Driver/Src/stm32f0xx_hal_rcc.c ****         if((HAL_GetTick() - tickstart ) > LSI_TIMEOUT_VALUE)
 512              		.loc 1 429 9 is_stmt 1 view .LVU144
 513              		.loc 1 429 13 is_stmt 0 view .LVU145
 514 01dc FFF7FEFF 		bl	HAL_GetTick
 515              	.LVL25:
 516              		.loc 1 429 27 discriminator 1 view .LVU146
 517 01e0 401B     		subs	r0, r0, r5
 518              		.loc 1 429 11 discriminator 1 view .LVU147
 519 01e2 0228     		cmp	r0, #2
 520 01e4 F6D9     		bls	.L31
 430:Drivers/STM32F0xx_HAL_Driver/Src/stm32f0xx_hal_rcc.c ****         {
 431:Drivers/STM32F0xx_HAL_Driver/Src/stm32f0xx_hal_rcc.c ****           return HAL_TIMEOUT;
 521              		.loc 1 431 18 view .LVU148
 522 01e6 0320     		movs	r0, #3
 523 01e8 7AE1     		b	.L8
 524              	.LVL26:
 525              	.L27:
 432:Drivers/STM32F0xx_HAL_Driver/Src/stm32f0xx_hal_rcc.c ****         }
 433:Drivers/STM32F0xx_HAL_Driver/Src/stm32f0xx_hal_rcc.c ****       }
 434:Drivers/STM32F0xx_HAL_Driver/Src/stm32f0xx_hal_rcc.c ****     }
 435:Drivers/STM32F0xx_HAL_Driver/Src/stm32f0xx_hal_rcc.c ****   }
 436:Drivers/STM32F0xx_HAL_Driver/Src/stm32f0xx_hal_rcc.c ****   /*------------------------------ LSE Configuration -------------------------*/ 
 437:Drivers/STM32F0xx_HAL_Driver/Src/stm32f0xx_hal_rcc.c ****   if(((RCC_OscInitStruct->OscillatorType) & RCC_OSCILLATORTYPE_LSE) == RCC_OSCILLATORTYPE_LSE)
 526              		.loc 1 437 3 is_stmt 1 view .LVU149
 527              		.loc 1 437 25 is_stmt 0 view .LVU150
 528 01ea 2368     		ldr	r3, [r4]
 529              		.loc 1 437 5 view .LVU151
 530 01ec 5B07     		lsls	r3, r3, #29
ARM GAS  C:\Users\0.0\AppData\Local\Temp\cceJoyYc.s 			page 19


 531 01ee 00D4     		bmi	.LCB477
 532 01f0 80E0     		b	.L33	@long jump
 533              	.LCB477:
 534              	.LBB2:
 438:Drivers/STM32F0xx_HAL_Driver/Src/stm32f0xx_hal_rcc.c ****   {
 439:Drivers/STM32F0xx_HAL_Driver/Src/stm32f0xx_hal_rcc.c ****     FlagStatus       pwrclkchanged = RESET;
 535              		.loc 1 439 5 is_stmt 1 view .LVU152
 536              	.LVL27:
 440:Drivers/STM32F0xx_HAL_Driver/Src/stm32f0xx_hal_rcc.c ****     
 441:Drivers/STM32F0xx_HAL_Driver/Src/stm32f0xx_hal_rcc.c ****     /* Check the parameters */
 442:Drivers/STM32F0xx_HAL_Driver/Src/stm32f0xx_hal_rcc.c ****     assert_param(IS_RCC_LSE(RCC_OscInitStruct->LSEState));
 537              		.loc 1 442 5 view .LVU153
 443:Drivers/STM32F0xx_HAL_Driver/Src/stm32f0xx_hal_rcc.c **** 
 444:Drivers/STM32F0xx_HAL_Driver/Src/stm32f0xx_hal_rcc.c ****     /* Update LSE configuration in Backup Domain control register    */
 445:Drivers/STM32F0xx_HAL_Driver/Src/stm32f0xx_hal_rcc.c ****     /* Requires to enable write access to Backup Domain of necessary */
 446:Drivers/STM32F0xx_HAL_Driver/Src/stm32f0xx_hal_rcc.c ****     if(__HAL_RCC_PWR_IS_CLK_DISABLED())
 538              		.loc 1 446 5 view .LVU154
 539              		.loc 1 446 8 is_stmt 0 view .LVU155
 540 01f2 3A4B     		ldr	r3, .L119
 541 01f4 DB69     		ldr	r3, [r3, #28]
 542              		.loc 1 446 7 view .LVU156
 543 01f6 DB00     		lsls	r3, r3, #3
 544 01f8 1DD4     		bmi	.L78
 447:Drivers/STM32F0xx_HAL_Driver/Src/stm32f0xx_hal_rcc.c ****     {
 448:Drivers/STM32F0xx_HAL_Driver/Src/stm32f0xx_hal_rcc.c ****       __HAL_RCC_PWR_CLK_ENABLE();
 545              		.loc 1 448 7 is_stmt 1 view .LVU157
 546              	.LBB3:
 547              		.loc 1 448 7 view .LVU158
 548              		.loc 1 448 7 view .LVU159
 549 01fa 384B     		ldr	r3, .L119
 550 01fc DA69     		ldr	r2, [r3, #28]
 551 01fe 8021     		movs	r1, #128
 552 0200 4905     		lsls	r1, r1, #21
 553 0202 0A43     		orrs	r2, r1
 554 0204 DA61     		str	r2, [r3, #28]
 555              		.loc 1 448 7 view .LVU160
 556 0206 DB69     		ldr	r3, [r3, #28]
 557 0208 0B40     		ands	r3, r1
 558 020a 0193     		str	r3, [sp, #4]
 559              		.loc 1 448 7 view .LVU161
 560 020c 019B     		ldr	r3, [sp, #4]
 561              	.LBE3:
 562              		.loc 1 448 7 view .LVU162
 449:Drivers/STM32F0xx_HAL_Driver/Src/stm32f0xx_hal_rcc.c ****       pwrclkchanged = SET;
 563              		.loc 1 449 7 view .LVU163
 564              	.LVL28:
 565              		.loc 1 449 21 is_stmt 0 view .LVU164
 566 020e 0125     		movs	r5, #1
 567              	.LVL29:
 568              	.L34:
 450:Drivers/STM32F0xx_HAL_Driver/Src/stm32f0xx_hal_rcc.c ****     }
 451:Drivers/STM32F0xx_HAL_Driver/Src/stm32f0xx_hal_rcc.c ****     
 452:Drivers/STM32F0xx_HAL_Driver/Src/stm32f0xx_hal_rcc.c ****     if(HAL_IS_BIT_CLR(PWR->CR, PWR_CR_DBP))
 569              		.loc 1 452 5 is_stmt 1 view .LVU165
 570              		.loc 1 452 8 is_stmt 0 view .LVU166
 571 0210 354B     		ldr	r3, .L119+12
 572 0212 1B68     		ldr	r3, [r3]
ARM GAS  C:\Users\0.0\AppData\Local\Temp\cceJoyYc.s 			page 20


 573              		.loc 1 452 7 view .LVU167
 574 0214 DB05     		lsls	r3, r3, #23
 575 0216 10D5     		bpl	.L108
 576              	.L35:
 453:Drivers/STM32F0xx_HAL_Driver/Src/stm32f0xx_hal_rcc.c ****     {
 454:Drivers/STM32F0xx_HAL_Driver/Src/stm32f0xx_hal_rcc.c ****       /* Enable write access to Backup domain */
 455:Drivers/STM32F0xx_HAL_Driver/Src/stm32f0xx_hal_rcc.c ****       SET_BIT(PWR->CR, PWR_CR_DBP);
 456:Drivers/STM32F0xx_HAL_Driver/Src/stm32f0xx_hal_rcc.c ****       
 457:Drivers/STM32F0xx_HAL_Driver/Src/stm32f0xx_hal_rcc.c ****       /* Wait for Backup domain Write protection disable */
 458:Drivers/STM32F0xx_HAL_Driver/Src/stm32f0xx_hal_rcc.c ****       tickstart = HAL_GetTick();
 459:Drivers/STM32F0xx_HAL_Driver/Src/stm32f0xx_hal_rcc.c **** 
 460:Drivers/STM32F0xx_HAL_Driver/Src/stm32f0xx_hal_rcc.c ****       while(HAL_IS_BIT_CLR(PWR->CR, PWR_CR_DBP))
 461:Drivers/STM32F0xx_HAL_Driver/Src/stm32f0xx_hal_rcc.c ****       {
 462:Drivers/STM32F0xx_HAL_Driver/Src/stm32f0xx_hal_rcc.c ****         if((HAL_GetTick() - tickstart) > RCC_DBP_TIMEOUT_VALUE)
 463:Drivers/STM32F0xx_HAL_Driver/Src/stm32f0xx_hal_rcc.c ****         {
 464:Drivers/STM32F0xx_HAL_Driver/Src/stm32f0xx_hal_rcc.c ****           return HAL_TIMEOUT;
 465:Drivers/STM32F0xx_HAL_Driver/Src/stm32f0xx_hal_rcc.c ****         }
 466:Drivers/STM32F0xx_HAL_Driver/Src/stm32f0xx_hal_rcc.c ****       }
 467:Drivers/STM32F0xx_HAL_Driver/Src/stm32f0xx_hal_rcc.c ****     }
 468:Drivers/STM32F0xx_HAL_Driver/Src/stm32f0xx_hal_rcc.c **** 
 469:Drivers/STM32F0xx_HAL_Driver/Src/stm32f0xx_hal_rcc.c ****     /* Set the new LSE configuration -----------------------------------------*/
 470:Drivers/STM32F0xx_HAL_Driver/Src/stm32f0xx_hal_rcc.c ****     __HAL_RCC_LSE_CONFIG(RCC_OscInitStruct->LSEState);
 577              		.loc 1 470 5 is_stmt 1 view .LVU168
 578              		.loc 1 470 5 view .LVU169
 579 0218 A368     		ldr	r3, [r4, #8]
 580 021a 012B     		cmp	r3, #1
 581 021c 21D0     		beq	.L109
 582              		.loc 1 470 5 discriminator 2 view .LVU170
 583 021e 002B     		cmp	r3, #0
 584 0220 36D1     		bne	.L40
 585              		.loc 1 470 5 discriminator 4 view .LVU171
 586 0222 2E4B     		ldr	r3, .L119
 587 0224 1A6A     		ldr	r2, [r3, #32]
 588 0226 0121     		movs	r1, #1
 589 0228 8A43     		bics	r2, r1
 590 022a 1A62     		str	r2, [r3, #32]
 591              		.loc 1 470 5 discriminator 4 view .LVU172
 592 022c 1A6A     		ldr	r2, [r3, #32]
 593 022e 0331     		adds	r1, r1, #3
 594 0230 8A43     		bics	r2, r1
 595 0232 1A62     		str	r2, [r3, #32]
 596 0234 1AE0     		b	.L39
 597              	.LVL30:
 598              	.L78:
 439:Drivers/STM32F0xx_HAL_Driver/Src/stm32f0xx_hal_rcc.c ****     
 599              		.loc 1 439 22 is_stmt 0 view .LVU173
 600 0236 0025     		movs	r5, #0
 601 0238 EAE7     		b	.L34
 602              	.LVL31:
 603              	.L108:
 455:Drivers/STM32F0xx_HAL_Driver/Src/stm32f0xx_hal_rcc.c ****       
 604              		.loc 1 455 7 is_stmt 1 view .LVU174
 605 023a 2B4A     		ldr	r2, .L119+12
 606 023c 1168     		ldr	r1, [r2]
 607 023e 8023     		movs	r3, #128
 608 0240 5B00     		lsls	r3, r3, #1
 609 0242 0B43     		orrs	r3, r1
ARM GAS  C:\Users\0.0\AppData\Local\Temp\cceJoyYc.s 			page 21


 610 0244 1360     		str	r3, [r2]
 458:Drivers/STM32F0xx_HAL_Driver/Src/stm32f0xx_hal_rcc.c **** 
 611              		.loc 1 458 7 view .LVU175
 458:Drivers/STM32F0xx_HAL_Driver/Src/stm32f0xx_hal_rcc.c **** 
 612              		.loc 1 458 19 is_stmt 0 view .LVU176
 613 0246 FFF7FEFF 		bl	HAL_GetTick
 614              	.LVL32:
 615 024a 0600     		movs	r6, r0
 616              	.LVL33:
 460:Drivers/STM32F0xx_HAL_Driver/Src/stm32f0xx_hal_rcc.c ****       {
 617              		.loc 1 460 7 is_stmt 1 view .LVU177
 618              	.L36:
 460:Drivers/STM32F0xx_HAL_Driver/Src/stm32f0xx_hal_rcc.c ****       {
 619              		.loc 1 460 13 view .LVU178
 620 024c 264B     		ldr	r3, .L119+12
 621 024e 1B68     		ldr	r3, [r3]
 622 0250 DB05     		lsls	r3, r3, #23
 623 0252 E1D4     		bmi	.L35
 462:Drivers/STM32F0xx_HAL_Driver/Src/stm32f0xx_hal_rcc.c ****         {
 624              		.loc 1 462 9 view .LVU179
 462:Drivers/STM32F0xx_HAL_Driver/Src/stm32f0xx_hal_rcc.c ****         {
 625              		.loc 1 462 13 is_stmt 0 view .LVU180
 626 0254 FFF7FEFF 		bl	HAL_GetTick
 627              	.LVL34:
 462:Drivers/STM32F0xx_HAL_Driver/Src/stm32f0xx_hal_rcc.c ****         {
 628              		.loc 1 462 27 discriminator 1 view .LVU181
 629 0258 801B     		subs	r0, r0, r6
 462:Drivers/STM32F0xx_HAL_Driver/Src/stm32f0xx_hal_rcc.c ****         {
 630              		.loc 1 462 11 discriminator 1 view .LVU182
 631 025a 6428     		cmp	r0, #100
 632 025c F6D9     		bls	.L36
 464:Drivers/STM32F0xx_HAL_Driver/Src/stm32f0xx_hal_rcc.c ****         }
 633              		.loc 1 464 18 view .LVU183
 634 025e 0320     		movs	r0, #3
 635 0260 3EE1     		b	.L8
 636              	.LVL35:
 637              	.L109:
 638              		.loc 1 470 5 is_stmt 1 discriminator 1 view .LVU184
 639 0262 1E4A     		ldr	r2, .L119
 640 0264 136A     		ldr	r3, [r2, #32]
 641 0266 0121     		movs	r1, #1
 642 0268 0B43     		orrs	r3, r1
 643 026a 1362     		str	r3, [r2, #32]
 644              	.L39:
 645              		.loc 1 470 5 discriminator 10 view .LVU185
 471:Drivers/STM32F0xx_HAL_Driver/Src/stm32f0xx_hal_rcc.c ****     /* Check the LSE State */
 472:Drivers/STM32F0xx_HAL_Driver/Src/stm32f0xx_hal_rcc.c ****     if(RCC_OscInitStruct->LSEState != RCC_LSE_OFF)
 646              		.loc 1 472 5 view .LVU186
 647              		.loc 1 472 25 is_stmt 0 view .LVU187
 648 026c A368     		ldr	r3, [r4, #8]
 649              		.loc 1 472 7 view .LVU188
 650 026e 002B     		cmp	r3, #0
 651 0270 24D0     		beq	.L42
 473:Drivers/STM32F0xx_HAL_Driver/Src/stm32f0xx_hal_rcc.c ****     {
 474:Drivers/STM32F0xx_HAL_Driver/Src/stm32f0xx_hal_rcc.c ****       /* Get Start Tick */
 475:Drivers/STM32F0xx_HAL_Driver/Src/stm32f0xx_hal_rcc.c ****       tickstart = HAL_GetTick();
 652              		.loc 1 475 7 is_stmt 1 view .LVU189
ARM GAS  C:\Users\0.0\AppData\Local\Temp\cceJoyYc.s 			page 22


 653              		.loc 1 475 19 is_stmt 0 view .LVU190
 654 0272 FFF7FEFF 		bl	HAL_GetTick
 655              	.LVL36:
 656 0276 0600     		movs	r6, r0
 657              	.LVL37:
 476:Drivers/STM32F0xx_HAL_Driver/Src/stm32f0xx_hal_rcc.c ****       
 477:Drivers/STM32F0xx_HAL_Driver/Src/stm32f0xx_hal_rcc.c ****       /* Wait till LSE is ready */  
 478:Drivers/STM32F0xx_HAL_Driver/Src/stm32f0xx_hal_rcc.c ****       while(__HAL_RCC_GET_FLAG(RCC_FLAG_LSERDY) == RESET)
 658              		.loc 1 478 7 is_stmt 1 view .LVU191
 659              	.L43:
 660              		.loc 1 478 49 view .LVU192
 661              		.loc 1 478 13 is_stmt 0 view .LVU193
 662 0278 184B     		ldr	r3, .L119
 663 027a 1B6A     		ldr	r3, [r3, #32]
 664              		.loc 1 478 49 view .LVU194
 665 027c 9B07     		lsls	r3, r3, #30
 666 027e 37D4     		bmi	.L45
 479:Drivers/STM32F0xx_HAL_Driver/Src/stm32f0xx_hal_rcc.c ****       {
 480:Drivers/STM32F0xx_HAL_Driver/Src/stm32f0xx_hal_rcc.c ****         if((HAL_GetTick() - tickstart ) > RCC_LSE_TIMEOUT_VALUE)
 667              		.loc 1 480 9 is_stmt 1 view .LVU195
 668              		.loc 1 480 13 is_stmt 0 view .LVU196
 669 0280 FFF7FEFF 		bl	HAL_GetTick
 670              	.LVL38:
 671              		.loc 1 480 27 discriminator 1 view .LVU197
 672 0284 801B     		subs	r0, r0, r6
 673              		.loc 1 480 11 discriminator 1 view .LVU198
 674 0286 194B     		ldr	r3, .L119+16
 675 0288 9842     		cmp	r0, r3
 676 028a F5D9     		bls	.L43
 481:Drivers/STM32F0xx_HAL_Driver/Src/stm32f0xx_hal_rcc.c ****         {
 482:Drivers/STM32F0xx_HAL_Driver/Src/stm32f0xx_hal_rcc.c ****           return HAL_TIMEOUT;
 677              		.loc 1 482 18 view .LVU199
 678 028c 0320     		movs	r0, #3
 679 028e 27E1     		b	.L8
 680              	.LVL39:
 681              	.L40:
 470:Drivers/STM32F0xx_HAL_Driver/Src/stm32f0xx_hal_rcc.c ****     /* Check the LSE State */
 682              		.loc 1 470 5 is_stmt 1 discriminator 5 view .LVU200
 683 0290 052B     		cmp	r3, #5
 684 0292 09D0     		beq	.L110
 470:Drivers/STM32F0xx_HAL_Driver/Src/stm32f0xx_hal_rcc.c ****     /* Check the LSE State */
 685              		.loc 1 470 5 discriminator 8 view .LVU201
 686 0294 114B     		ldr	r3, .L119
 687 0296 1A6A     		ldr	r2, [r3, #32]
 688 0298 0121     		movs	r1, #1
 689 029a 8A43     		bics	r2, r1
 690 029c 1A62     		str	r2, [r3, #32]
 470:Drivers/STM32F0xx_HAL_Driver/Src/stm32f0xx_hal_rcc.c ****     /* Check the LSE State */
 691              		.loc 1 470 5 discriminator 8 view .LVU202
 692 029e 1A6A     		ldr	r2, [r3, #32]
 693 02a0 0331     		adds	r1, r1, #3
 694 02a2 8A43     		bics	r2, r1
 695 02a4 1A62     		str	r2, [r3, #32]
 696 02a6 E1E7     		b	.L39
 697              	.L110:
 470:Drivers/STM32F0xx_HAL_Driver/Src/stm32f0xx_hal_rcc.c ****     /* Check the LSE State */
 698              		.loc 1 470 5 discriminator 7 view .LVU203
ARM GAS  C:\Users\0.0\AppData\Local\Temp\cceJoyYc.s 			page 23


 699 02a8 0C4B     		ldr	r3, .L119
 700 02aa 1A6A     		ldr	r2, [r3, #32]
 701 02ac 0421     		movs	r1, #4
 702 02ae 0A43     		orrs	r2, r1
 703 02b0 1A62     		str	r2, [r3, #32]
 470:Drivers/STM32F0xx_HAL_Driver/Src/stm32f0xx_hal_rcc.c ****     /* Check the LSE State */
 704              		.loc 1 470 5 discriminator 7 view .LVU204
 705 02b2 1A6A     		ldr	r2, [r3, #32]
 706 02b4 0339     		subs	r1, r1, #3
 707 02b6 0A43     		orrs	r2, r1
 708 02b8 1A62     		str	r2, [r3, #32]
 709 02ba D7E7     		b	.L39
 710              	.L42:
 483:Drivers/STM32F0xx_HAL_Driver/Src/stm32f0xx_hal_rcc.c ****         }
 484:Drivers/STM32F0xx_HAL_Driver/Src/stm32f0xx_hal_rcc.c ****       }
 485:Drivers/STM32F0xx_HAL_Driver/Src/stm32f0xx_hal_rcc.c ****     }
 486:Drivers/STM32F0xx_HAL_Driver/Src/stm32f0xx_hal_rcc.c ****     else
 487:Drivers/STM32F0xx_HAL_Driver/Src/stm32f0xx_hal_rcc.c ****     {
 488:Drivers/STM32F0xx_HAL_Driver/Src/stm32f0xx_hal_rcc.c ****       /* Get Start Tick */
 489:Drivers/STM32F0xx_HAL_Driver/Src/stm32f0xx_hal_rcc.c ****       tickstart = HAL_GetTick();
 711              		.loc 1 489 7 view .LVU205
 712              		.loc 1 489 19 is_stmt 0 view .LVU206
 713 02bc FFF7FEFF 		bl	HAL_GetTick
 714              	.LVL40:
 715 02c0 0600     		movs	r6, r0
 716              	.LVL41:
 490:Drivers/STM32F0xx_HAL_Driver/Src/stm32f0xx_hal_rcc.c ****       
 491:Drivers/STM32F0xx_HAL_Driver/Src/stm32f0xx_hal_rcc.c ****       /* Wait till LSE is disabled */  
 492:Drivers/STM32F0xx_HAL_Driver/Src/stm32f0xx_hal_rcc.c ****       while(__HAL_RCC_GET_FLAG(RCC_FLAG_LSERDY) != RESET)
 717              		.loc 1 492 7 is_stmt 1 view .LVU207
 718              	.L46:
 719              		.loc 1 492 49 view .LVU208
 720              		.loc 1 492 13 is_stmt 0 view .LVU209
 721 02c2 064B     		ldr	r3, .L119
 722 02c4 1B6A     		ldr	r3, [r3, #32]
 723              		.loc 1 492 49 view .LVU210
 724 02c6 9B07     		lsls	r3, r3, #30
 725 02c8 12D5     		bpl	.L45
 493:Drivers/STM32F0xx_HAL_Driver/Src/stm32f0xx_hal_rcc.c ****       {
 494:Drivers/STM32F0xx_HAL_Driver/Src/stm32f0xx_hal_rcc.c ****         if((HAL_GetTick() - tickstart ) > RCC_LSE_TIMEOUT_VALUE)
 726              		.loc 1 494 9 is_stmt 1 view .LVU211
 727              		.loc 1 494 13 is_stmt 0 view .LVU212
 728 02ca FFF7FEFF 		bl	HAL_GetTick
 729              	.LVL42:
 730              		.loc 1 494 27 discriminator 1 view .LVU213
 731 02ce 801B     		subs	r0, r0, r6
 732              		.loc 1 494 11 discriminator 1 view .LVU214
 733 02d0 064B     		ldr	r3, .L119+16
 734 02d2 9842     		cmp	r0, r3
 735 02d4 F5D9     		bls	.L46
 495:Drivers/STM32F0xx_HAL_Driver/Src/stm32f0xx_hal_rcc.c ****         {
 496:Drivers/STM32F0xx_HAL_Driver/Src/stm32f0xx_hal_rcc.c ****           return HAL_TIMEOUT;
 736              		.loc 1 496 18 view .LVU215
 737 02d6 0320     		movs	r0, #3
 738 02d8 02E1     		b	.L8
 739              	.L120:
 740 02da C046     		.align	2
ARM GAS  C:\Users\0.0\AppData\Local\Temp\cceJoyYc.s 			page 24


 741              	.L119:
 742 02dc 00100240 		.word	1073876992
 743 02e0 FFFFFEFF 		.word	-65537
 744 02e4 FFFFFBFF 		.word	-262145
 745 02e8 00700040 		.word	1073770496
 746 02ec 88130000 		.word	5000
 747              	.L45:
 497:Drivers/STM32F0xx_HAL_Driver/Src/stm32f0xx_hal_rcc.c ****         }
 498:Drivers/STM32F0xx_HAL_Driver/Src/stm32f0xx_hal_rcc.c ****       }
 499:Drivers/STM32F0xx_HAL_Driver/Src/stm32f0xx_hal_rcc.c ****     }
 500:Drivers/STM32F0xx_HAL_Driver/Src/stm32f0xx_hal_rcc.c **** 
 501:Drivers/STM32F0xx_HAL_Driver/Src/stm32f0xx_hal_rcc.c ****     /* Require to disable power clock if necessary */
 502:Drivers/STM32F0xx_HAL_Driver/Src/stm32f0xx_hal_rcc.c ****     if(pwrclkchanged == SET)
 748              		.loc 1 502 5 is_stmt 1 view .LVU216
 749              		.loc 1 502 7 is_stmt 0 view .LVU217
 750 02f0 012D     		cmp	r5, #1
 751 02f2 39D0     		beq	.L111
 752              	.LVL43:
 753              	.L33:
 754              		.loc 1 502 7 view .LVU218
 755              	.LBE2:
 503:Drivers/STM32F0xx_HAL_Driver/Src/stm32f0xx_hal_rcc.c ****     {
 504:Drivers/STM32F0xx_HAL_Driver/Src/stm32f0xx_hal_rcc.c ****       __HAL_RCC_PWR_CLK_DISABLE();
 505:Drivers/STM32F0xx_HAL_Driver/Src/stm32f0xx_hal_rcc.c ****     }
 506:Drivers/STM32F0xx_HAL_Driver/Src/stm32f0xx_hal_rcc.c ****   }
 507:Drivers/STM32F0xx_HAL_Driver/Src/stm32f0xx_hal_rcc.c **** 
 508:Drivers/STM32F0xx_HAL_Driver/Src/stm32f0xx_hal_rcc.c ****   /*----------------------------- HSI14 Configuration --------------------------*/
 509:Drivers/STM32F0xx_HAL_Driver/Src/stm32f0xx_hal_rcc.c ****   if(((RCC_OscInitStruct->OscillatorType) & RCC_OSCILLATORTYPE_HSI14) == RCC_OSCILLATORTYPE_HSI14)
 756              		.loc 1 509 3 is_stmt 1 view .LVU219
 757              		.loc 1 509 25 is_stmt 0 view .LVU220
 758 02f4 2368     		ldr	r3, [r4]
 759              		.loc 1 509 5 view .LVU221
 760 02f6 DB06     		lsls	r3, r3, #27
 761 02f8 10D5     		bpl	.L48
 510:Drivers/STM32F0xx_HAL_Driver/Src/stm32f0xx_hal_rcc.c ****   {
 511:Drivers/STM32F0xx_HAL_Driver/Src/stm32f0xx_hal_rcc.c ****     /* Check the parameters */
 512:Drivers/STM32F0xx_HAL_Driver/Src/stm32f0xx_hal_rcc.c ****     assert_param(IS_RCC_HSI14(RCC_OscInitStruct->HSI14State));
 762              		.loc 1 512 5 is_stmt 1 view .LVU222
 513:Drivers/STM32F0xx_HAL_Driver/Src/stm32f0xx_hal_rcc.c ****     assert_param(IS_RCC_CALIBRATION_VALUE(RCC_OscInitStruct->HSI14CalibrationValue));
 763              		.loc 1 513 5 view .LVU223
 514:Drivers/STM32F0xx_HAL_Driver/Src/stm32f0xx_hal_rcc.c **** 
 515:Drivers/STM32F0xx_HAL_Driver/Src/stm32f0xx_hal_rcc.c ****     /* Check the HSI14 State */
 516:Drivers/STM32F0xx_HAL_Driver/Src/stm32f0xx_hal_rcc.c ****     if(RCC_OscInitStruct->HSI14State == RCC_HSI14_ON)
 764              		.loc 1 516 5 view .LVU224
 765              		.loc 1 516 25 is_stmt 0 view .LVU225
 766 02fa 6369     		ldr	r3, [r4, #20]
 767              		.loc 1 516 7 view .LVU226
 768 02fc 012B     		cmp	r3, #1
 769 02fe 39D0     		beq	.L112
 517:Drivers/STM32F0xx_HAL_Driver/Src/stm32f0xx_hal_rcc.c ****     {
 518:Drivers/STM32F0xx_HAL_Driver/Src/stm32f0xx_hal_rcc.c ****       /* Disable ADC control of the Internal High Speed oscillator HSI14 */
 519:Drivers/STM32F0xx_HAL_Driver/Src/stm32f0xx_hal_rcc.c ****       __HAL_RCC_HSI14ADC_DISABLE();
 520:Drivers/STM32F0xx_HAL_Driver/Src/stm32f0xx_hal_rcc.c **** 
 521:Drivers/STM32F0xx_HAL_Driver/Src/stm32f0xx_hal_rcc.c ****       /* Enable the Internal High Speed oscillator (HSI). */
 522:Drivers/STM32F0xx_HAL_Driver/Src/stm32f0xx_hal_rcc.c ****       __HAL_RCC_HSI14_ENABLE();
 523:Drivers/STM32F0xx_HAL_Driver/Src/stm32f0xx_hal_rcc.c **** 
 524:Drivers/STM32F0xx_HAL_Driver/Src/stm32f0xx_hal_rcc.c ****       /* Get Start Tick */
ARM GAS  C:\Users\0.0\AppData\Local\Temp\cceJoyYc.s 			page 25


 525:Drivers/STM32F0xx_HAL_Driver/Src/stm32f0xx_hal_rcc.c ****       tickstart = HAL_GetTick();
 526:Drivers/STM32F0xx_HAL_Driver/Src/stm32f0xx_hal_rcc.c ****       
 527:Drivers/STM32F0xx_HAL_Driver/Src/stm32f0xx_hal_rcc.c ****       /* Wait till HSI is ready */  
 528:Drivers/STM32F0xx_HAL_Driver/Src/stm32f0xx_hal_rcc.c ****       while(__HAL_RCC_GET_FLAG(RCC_FLAG_HSI14RDY) == RESET)
 529:Drivers/STM32F0xx_HAL_Driver/Src/stm32f0xx_hal_rcc.c ****       {
 530:Drivers/STM32F0xx_HAL_Driver/Src/stm32f0xx_hal_rcc.c ****         if((HAL_GetTick() - tickstart) > HSI14_TIMEOUT_VALUE)
 531:Drivers/STM32F0xx_HAL_Driver/Src/stm32f0xx_hal_rcc.c ****         {
 532:Drivers/STM32F0xx_HAL_Driver/Src/stm32f0xx_hal_rcc.c ****           return HAL_TIMEOUT;
 533:Drivers/STM32F0xx_HAL_Driver/Src/stm32f0xx_hal_rcc.c ****         }      
 534:Drivers/STM32F0xx_HAL_Driver/Src/stm32f0xx_hal_rcc.c ****       } 
 535:Drivers/STM32F0xx_HAL_Driver/Src/stm32f0xx_hal_rcc.c **** 
 536:Drivers/STM32F0xx_HAL_Driver/Src/stm32f0xx_hal_rcc.c ****       /* Adjusts the Internal High Speed oscillator 14Mhz (HSI14) calibration value. */
 537:Drivers/STM32F0xx_HAL_Driver/Src/stm32f0xx_hal_rcc.c ****       __HAL_RCC_HSI14_CALIBRATIONVALUE_ADJUST(RCC_OscInitStruct->HSI14CalibrationValue);
 538:Drivers/STM32F0xx_HAL_Driver/Src/stm32f0xx_hal_rcc.c ****     }
 539:Drivers/STM32F0xx_HAL_Driver/Src/stm32f0xx_hal_rcc.c ****     else if(RCC_OscInitStruct->HSI14State == RCC_HSI14_ADC_CONTROL)
 770              		.loc 1 539 10 is_stmt 1 view .LVU227
 771              		.loc 1 539 12 is_stmt 0 view .LVU228
 772 0300 0533     		adds	r3, r3, #5
 773 0302 57D1     		bne	.L52
 540:Drivers/STM32F0xx_HAL_Driver/Src/stm32f0xx_hal_rcc.c ****     {
 541:Drivers/STM32F0xx_HAL_Driver/Src/stm32f0xx_hal_rcc.c ****       /* Enable ADC control of the Internal High Speed oscillator HSI14 */
 542:Drivers/STM32F0xx_HAL_Driver/Src/stm32f0xx_hal_rcc.c ****       __HAL_RCC_HSI14ADC_ENABLE();
 774              		.loc 1 542 7 is_stmt 1 view .LVU229
 775 0304 784A     		ldr	r2, .L121
 776 0306 536B     		ldr	r3, [r2, #52]
 777 0308 0421     		movs	r1, #4
 778 030a 8B43     		bics	r3, r1
 779 030c 5363     		str	r3, [r2, #52]
 543:Drivers/STM32F0xx_HAL_Driver/Src/stm32f0xx_hal_rcc.c **** 
 544:Drivers/STM32F0xx_HAL_Driver/Src/stm32f0xx_hal_rcc.c ****       /* Adjusts the Internal High Speed oscillator 14Mhz (HSI14) calibration value. */
 545:Drivers/STM32F0xx_HAL_Driver/Src/stm32f0xx_hal_rcc.c ****       __HAL_RCC_HSI14_CALIBRATIONVALUE_ADJUST(RCC_OscInitStruct->HSI14CalibrationValue);
 780              		.loc 1 545 7 view .LVU230
 781 030e 536B     		ldr	r3, [r2, #52]
 782 0310 F431     		adds	r1, r1, #244
 783 0312 8B43     		bics	r3, r1
 784 0314 A169     		ldr	r1, [r4, #24]
 785 0316 C900     		lsls	r1, r1, #3
 786 0318 0B43     		orrs	r3, r1
 787 031a 5363     		str	r3, [r2, #52]
 788              	.L48:
 546:Drivers/STM32F0xx_HAL_Driver/Src/stm32f0xx_hal_rcc.c ****     }
 547:Drivers/STM32F0xx_HAL_Driver/Src/stm32f0xx_hal_rcc.c ****     else
 548:Drivers/STM32F0xx_HAL_Driver/Src/stm32f0xx_hal_rcc.c ****     {
 549:Drivers/STM32F0xx_HAL_Driver/Src/stm32f0xx_hal_rcc.c ****       /* Disable ADC control of the Internal High Speed oscillator HSI14 */
 550:Drivers/STM32F0xx_HAL_Driver/Src/stm32f0xx_hal_rcc.c ****       __HAL_RCC_HSI14ADC_DISABLE();
 551:Drivers/STM32F0xx_HAL_Driver/Src/stm32f0xx_hal_rcc.c **** 
 552:Drivers/STM32F0xx_HAL_Driver/Src/stm32f0xx_hal_rcc.c ****       /* Disable the Internal High Speed oscillator (HSI). */
 553:Drivers/STM32F0xx_HAL_Driver/Src/stm32f0xx_hal_rcc.c ****       __HAL_RCC_HSI14_DISABLE();
 554:Drivers/STM32F0xx_HAL_Driver/Src/stm32f0xx_hal_rcc.c **** 
 555:Drivers/STM32F0xx_HAL_Driver/Src/stm32f0xx_hal_rcc.c ****       /* Get Start Tick */
 556:Drivers/STM32F0xx_HAL_Driver/Src/stm32f0xx_hal_rcc.c ****       tickstart = HAL_GetTick();
 557:Drivers/STM32F0xx_HAL_Driver/Src/stm32f0xx_hal_rcc.c ****       
 558:Drivers/STM32F0xx_HAL_Driver/Src/stm32f0xx_hal_rcc.c ****       /* Wait till HSI is ready */  
 559:Drivers/STM32F0xx_HAL_Driver/Src/stm32f0xx_hal_rcc.c ****       while(__HAL_RCC_GET_FLAG(RCC_FLAG_HSI14RDY) != RESET)
 560:Drivers/STM32F0xx_HAL_Driver/Src/stm32f0xx_hal_rcc.c ****       {
 561:Drivers/STM32F0xx_HAL_Driver/Src/stm32f0xx_hal_rcc.c ****         if((HAL_GetTick() - tickstart) > HSI14_TIMEOUT_VALUE)
 562:Drivers/STM32F0xx_HAL_Driver/Src/stm32f0xx_hal_rcc.c ****         {
ARM GAS  C:\Users\0.0\AppData\Local\Temp\cceJoyYc.s 			page 26


 563:Drivers/STM32F0xx_HAL_Driver/Src/stm32f0xx_hal_rcc.c ****           return HAL_TIMEOUT;
 564:Drivers/STM32F0xx_HAL_Driver/Src/stm32f0xx_hal_rcc.c ****         }
 565:Drivers/STM32F0xx_HAL_Driver/Src/stm32f0xx_hal_rcc.c ****       }
 566:Drivers/STM32F0xx_HAL_Driver/Src/stm32f0xx_hal_rcc.c ****     }
 567:Drivers/STM32F0xx_HAL_Driver/Src/stm32f0xx_hal_rcc.c ****   }
 568:Drivers/STM32F0xx_HAL_Driver/Src/stm32f0xx_hal_rcc.c **** 
 569:Drivers/STM32F0xx_HAL_Driver/Src/stm32f0xx_hal_rcc.c **** #if defined(RCC_HSI48_SUPPORT)
 570:Drivers/STM32F0xx_HAL_Driver/Src/stm32f0xx_hal_rcc.c ****   /*----------------------------- HSI48 Configuration --------------------------*/
 571:Drivers/STM32F0xx_HAL_Driver/Src/stm32f0xx_hal_rcc.c ****   if(((RCC_OscInitStruct->OscillatorType) & RCC_OSCILLATORTYPE_HSI48) == RCC_OSCILLATORTYPE_HSI48)
 789              		.loc 1 571 3 view .LVU231
 790              		.loc 1 571 25 is_stmt 0 view .LVU232
 791 031c 2368     		ldr	r3, [r4]
 792              		.loc 1 571 5 view .LVU233
 793 031e 9B06     		lsls	r3, r3, #26
 794 0320 6DD5     		bpl	.L55
 572:Drivers/STM32F0xx_HAL_Driver/Src/stm32f0xx_hal_rcc.c ****   {
 573:Drivers/STM32F0xx_HAL_Driver/Src/stm32f0xx_hal_rcc.c ****     /* Check the parameters */
 574:Drivers/STM32F0xx_HAL_Driver/Src/stm32f0xx_hal_rcc.c ****     assert_param(IS_RCC_HSI48(RCC_OscInitStruct->HSI48State));
 795              		.loc 1 574 5 is_stmt 1 view .LVU234
 575:Drivers/STM32F0xx_HAL_Driver/Src/stm32f0xx_hal_rcc.c **** 
 576:Drivers/STM32F0xx_HAL_Driver/Src/stm32f0xx_hal_rcc.c ****     /* When the HSI48 is used as system clock it is not allowed to be disabled */
 577:Drivers/STM32F0xx_HAL_Driver/Src/stm32f0xx_hal_rcc.c ****     if((__HAL_RCC_GET_SYSCLK_SOURCE() == RCC_SYSCLKSOURCE_STATUS_HSI48) ||
 796              		.loc 1 577 5 view .LVU235
 797              		.loc 1 577 9 is_stmt 0 view .LVU236
 798 0322 714B     		ldr	r3, .L121
 799 0324 5A68     		ldr	r2, [r3, #4]
 800 0326 0C23     		movs	r3, #12
 801 0328 1340     		ands	r3, r2
 802              		.loc 1 577 7 view .LVU237
 803 032a 0C2B     		cmp	r3, #12
 804 032c 60D0     		beq	.L56
 578:Drivers/STM32F0xx_HAL_Driver/Src/stm32f0xx_hal_rcc.c ****        ((__HAL_RCC_GET_SYSCLK_SOURCE() == RCC_SYSCLKSOURCE_STATUS_PLLCLK) && (__HAL_RCC_GET_PLL_OSC
 805              		.loc 1 578 10 view .LVU238
 806 032e 6E4B     		ldr	r3, .L121
 807 0330 5A68     		ldr	r2, [r3, #4]
 808 0332 0C23     		movs	r3, #12
 809 0334 1340     		ands	r3, r2
 577:Drivers/STM32F0xx_HAL_Driver/Src/stm32f0xx_hal_rcc.c ****        ((__HAL_RCC_GET_SYSCLK_SOURCE() == RCC_SYSCLKSOURCE_STATUS_PLLCLK) && (__HAL_RCC_GET_PLL_OSC
 810              		.loc 1 577 73 discriminator 1 view .LVU239
 811 0336 082B     		cmp	r3, #8
 812 0338 53D0     		beq	.L113
 813              	.L57:
 579:Drivers/STM32F0xx_HAL_Driver/Src/stm32f0xx_hal_rcc.c ****     {
 580:Drivers/STM32F0xx_HAL_Driver/Src/stm32f0xx_hal_rcc.c ****       if((__HAL_RCC_GET_FLAG(RCC_FLAG_HSI48RDY) != RESET) && (RCC_OscInitStruct->HSI48State != RCC_
 581:Drivers/STM32F0xx_HAL_Driver/Src/stm32f0xx_hal_rcc.c ****       {
 582:Drivers/STM32F0xx_HAL_Driver/Src/stm32f0xx_hal_rcc.c ****         return HAL_ERROR;
 583:Drivers/STM32F0xx_HAL_Driver/Src/stm32f0xx_hal_rcc.c ****       }
 584:Drivers/STM32F0xx_HAL_Driver/Src/stm32f0xx_hal_rcc.c ****     }
 585:Drivers/STM32F0xx_HAL_Driver/Src/stm32f0xx_hal_rcc.c ****     else
 586:Drivers/STM32F0xx_HAL_Driver/Src/stm32f0xx_hal_rcc.c ****     {
 587:Drivers/STM32F0xx_HAL_Driver/Src/stm32f0xx_hal_rcc.c ****       /* Check the HSI48 State */
 588:Drivers/STM32F0xx_HAL_Driver/Src/stm32f0xx_hal_rcc.c ****       if(RCC_OscInitStruct->HSI48State != RCC_HSI48_OFF)
 814              		.loc 1 588 7 is_stmt 1 view .LVU240
 815              		.loc 1 588 27 is_stmt 0 view .LVU241
 816 033a 236A     		ldr	r3, [r4, #32]
 817              		.loc 1 588 9 view .LVU242
 818 033c 002B     		cmp	r3, #0
ARM GAS  C:\Users\0.0\AppData\Local\Temp\cceJoyYc.s 			page 27


 819 033e 7CD0     		beq	.L58
 589:Drivers/STM32F0xx_HAL_Driver/Src/stm32f0xx_hal_rcc.c ****       {
 590:Drivers/STM32F0xx_HAL_Driver/Src/stm32f0xx_hal_rcc.c ****         /* Enable the Internal High Speed oscillator (HSI48). */
 591:Drivers/STM32F0xx_HAL_Driver/Src/stm32f0xx_hal_rcc.c ****         __HAL_RCC_HSI48_ENABLE();
 820              		.loc 1 591 9 is_stmt 1 view .LVU243
 821 0340 694A     		ldr	r2, .L121
 822 0342 516B     		ldr	r1, [r2, #52]
 823 0344 8023     		movs	r3, #128
 824 0346 5B02     		lsls	r3, r3, #9
 825 0348 0B43     		orrs	r3, r1
 826 034a 5363     		str	r3, [r2, #52]
 592:Drivers/STM32F0xx_HAL_Driver/Src/stm32f0xx_hal_rcc.c **** 
 593:Drivers/STM32F0xx_HAL_Driver/Src/stm32f0xx_hal_rcc.c ****         /* Get Start Tick */
 594:Drivers/STM32F0xx_HAL_Driver/Src/stm32f0xx_hal_rcc.c ****         tickstart = HAL_GetTick();
 827              		.loc 1 594 9 view .LVU244
 828              		.loc 1 594 21 is_stmt 0 view .LVU245
 829 034c FFF7FEFF 		bl	HAL_GetTick
 830              	.LVL44:
 831 0350 0500     		movs	r5, r0
 832              	.LVL45:
 595:Drivers/STM32F0xx_HAL_Driver/Src/stm32f0xx_hal_rcc.c ****       
 596:Drivers/STM32F0xx_HAL_Driver/Src/stm32f0xx_hal_rcc.c ****         /* Wait till HSI48 is ready */  
 597:Drivers/STM32F0xx_HAL_Driver/Src/stm32f0xx_hal_rcc.c ****         while(__HAL_RCC_GET_FLAG(RCC_FLAG_HSI48RDY) == RESET)
 833              		.loc 1 597 9 is_stmt 1 view .LVU246
 834              	.L59:
 835              		.loc 1 597 53 view .LVU247
 836              		.loc 1 597 15 is_stmt 0 view .LVU248
 837 0352 654B     		ldr	r3, .L121
 838 0354 5B6B     		ldr	r3, [r3, #52]
 839              		.loc 1 597 53 view .LVU249
 840 0356 DB03     		lsls	r3, r3, #15
 841 0358 51D4     		bmi	.L55
 598:Drivers/STM32F0xx_HAL_Driver/Src/stm32f0xx_hal_rcc.c ****         {
 599:Drivers/STM32F0xx_HAL_Driver/Src/stm32f0xx_hal_rcc.c ****           if((HAL_GetTick() - tickstart) > HSI48_TIMEOUT_VALUE)
 842              		.loc 1 599 11 is_stmt 1 view .LVU250
 843              		.loc 1 599 15 is_stmt 0 view .LVU251
 844 035a FFF7FEFF 		bl	HAL_GetTick
 845              	.LVL46:
 846              		.loc 1 599 29 discriminator 1 view .LVU252
 847 035e 401B     		subs	r0, r0, r5
 848              		.loc 1 599 13 discriminator 1 view .LVU253
 849 0360 0228     		cmp	r0, #2
 850 0362 F6D9     		bls	.L59
 600:Drivers/STM32F0xx_HAL_Driver/Src/stm32f0xx_hal_rcc.c ****           {
 601:Drivers/STM32F0xx_HAL_Driver/Src/stm32f0xx_hal_rcc.c ****             return HAL_TIMEOUT;
 851              		.loc 1 601 20 view .LVU254
 852 0364 0320     		movs	r0, #3
 853 0366 BBE0     		b	.L8
 854              	.LVL47:
 855              	.L111:
 856              	.LBB4:
 504:Drivers/STM32F0xx_HAL_Driver/Src/stm32f0xx_hal_rcc.c ****     }
 857              		.loc 1 504 7 is_stmt 1 view .LVU255
 858 0368 5F4A     		ldr	r2, .L121
 859 036a D369     		ldr	r3, [r2, #28]
 860 036c 5F49     		ldr	r1, .L121+4
 861 036e 0B40     		ands	r3, r1
ARM GAS  C:\Users\0.0\AppData\Local\Temp\cceJoyYc.s 			page 28


 862 0370 D361     		str	r3, [r2, #28]
 863 0372 BFE7     		b	.L33
 864              	.LVL48:
 865              	.L112:
 504:Drivers/STM32F0xx_HAL_Driver/Src/stm32f0xx_hal_rcc.c ****     }
 866              		.loc 1 504 7 is_stmt 0 view .LVU256
 867              	.LBE4:
 519:Drivers/STM32F0xx_HAL_Driver/Src/stm32f0xx_hal_rcc.c **** 
 868              		.loc 1 519 7 is_stmt 1 view .LVU257
 869 0374 5C4B     		ldr	r3, .L121
 870 0376 5A6B     		ldr	r2, [r3, #52]
 871 0378 0421     		movs	r1, #4
 872 037a 0A43     		orrs	r2, r1
 873 037c 5A63     		str	r2, [r3, #52]
 522:Drivers/STM32F0xx_HAL_Driver/Src/stm32f0xx_hal_rcc.c **** 
 874              		.loc 1 522 7 view .LVU258
 875 037e 5A6B     		ldr	r2, [r3, #52]
 876 0380 0339     		subs	r1, r1, #3
 877 0382 0A43     		orrs	r2, r1
 878 0384 5A63     		str	r2, [r3, #52]
 525:Drivers/STM32F0xx_HAL_Driver/Src/stm32f0xx_hal_rcc.c ****       
 879              		.loc 1 525 7 view .LVU259
 525:Drivers/STM32F0xx_HAL_Driver/Src/stm32f0xx_hal_rcc.c ****       
 880              		.loc 1 525 19 is_stmt 0 view .LVU260
 881 0386 FFF7FEFF 		bl	HAL_GetTick
 882              	.LVL49:
 883 038a 0500     		movs	r5, r0
 884              	.LVL50:
 528:Drivers/STM32F0xx_HAL_Driver/Src/stm32f0xx_hal_rcc.c ****       {
 885              		.loc 1 528 7 is_stmt 1 view .LVU261
 886              	.L50:
 528:Drivers/STM32F0xx_HAL_Driver/Src/stm32f0xx_hal_rcc.c ****       {
 887              		.loc 1 528 51 view .LVU262
 528:Drivers/STM32F0xx_HAL_Driver/Src/stm32f0xx_hal_rcc.c ****       {
 888              		.loc 1 528 13 is_stmt 0 view .LVU263
 889 038c 564B     		ldr	r3, .L121
 890 038e 5B6B     		ldr	r3, [r3, #52]
 528:Drivers/STM32F0xx_HAL_Driver/Src/stm32f0xx_hal_rcc.c ****       {
 891              		.loc 1 528 51 view .LVU264
 892 0390 9B07     		lsls	r3, r3, #30
 893 0392 06D4     		bmi	.L114
 530:Drivers/STM32F0xx_HAL_Driver/Src/stm32f0xx_hal_rcc.c ****         {
 894              		.loc 1 530 9 is_stmt 1 view .LVU265
 530:Drivers/STM32F0xx_HAL_Driver/Src/stm32f0xx_hal_rcc.c ****         {
 895              		.loc 1 530 13 is_stmt 0 view .LVU266
 896 0394 FFF7FEFF 		bl	HAL_GetTick
 897              	.LVL51:
 530:Drivers/STM32F0xx_HAL_Driver/Src/stm32f0xx_hal_rcc.c ****         {
 898              		.loc 1 530 27 discriminator 1 view .LVU267
 899 0398 401B     		subs	r0, r0, r5
 530:Drivers/STM32F0xx_HAL_Driver/Src/stm32f0xx_hal_rcc.c ****         {
 900              		.loc 1 530 11 discriminator 1 view .LVU268
 901 039a 0228     		cmp	r0, #2
 902 039c F6D9     		bls	.L50
 532:Drivers/STM32F0xx_HAL_Driver/Src/stm32f0xx_hal_rcc.c ****         }      
 903              		.loc 1 532 18 view .LVU269
 904 039e 0320     		movs	r0, #3
ARM GAS  C:\Users\0.0\AppData\Local\Temp\cceJoyYc.s 			page 29


 905 03a0 9EE0     		b	.L8
 906              	.L114:
 537:Drivers/STM32F0xx_HAL_Driver/Src/stm32f0xx_hal_rcc.c ****     }
 907              		.loc 1 537 7 is_stmt 1 view .LVU270
 908 03a2 5149     		ldr	r1, .L121
 909 03a4 4B6B     		ldr	r3, [r1, #52]
 910 03a6 F822     		movs	r2, #248
 911 03a8 9343     		bics	r3, r2
 912 03aa A269     		ldr	r2, [r4, #24]
 913 03ac D200     		lsls	r2, r2, #3
 914 03ae 1343     		orrs	r3, r2
 915 03b0 4B63     		str	r3, [r1, #52]
 916 03b2 B3E7     		b	.L48
 917              	.LVL52:
 918              	.L52:
 550:Drivers/STM32F0xx_HAL_Driver/Src/stm32f0xx_hal_rcc.c **** 
 919              		.loc 1 550 7 view .LVU271
 920 03b4 4C4B     		ldr	r3, .L121
 921 03b6 5A6B     		ldr	r2, [r3, #52]
 922 03b8 0421     		movs	r1, #4
 923 03ba 0A43     		orrs	r2, r1
 924 03bc 5A63     		str	r2, [r3, #52]
 553:Drivers/STM32F0xx_HAL_Driver/Src/stm32f0xx_hal_rcc.c **** 
 925              		.loc 1 553 7 view .LVU272
 926 03be 5A6B     		ldr	r2, [r3, #52]
 927 03c0 0339     		subs	r1, r1, #3
 928 03c2 8A43     		bics	r2, r1
 929 03c4 5A63     		str	r2, [r3, #52]
 556:Drivers/STM32F0xx_HAL_Driver/Src/stm32f0xx_hal_rcc.c ****       
 930              		.loc 1 556 7 view .LVU273
 556:Drivers/STM32F0xx_HAL_Driver/Src/stm32f0xx_hal_rcc.c ****       
 931              		.loc 1 556 19 is_stmt 0 view .LVU274
 932 03c6 FFF7FEFF 		bl	HAL_GetTick
 933              	.LVL53:
 934 03ca 0500     		movs	r5, r0
 935              	.LVL54:
 559:Drivers/STM32F0xx_HAL_Driver/Src/stm32f0xx_hal_rcc.c ****       {
 936              		.loc 1 559 7 is_stmt 1 view .LVU275
 937              	.L53:
 559:Drivers/STM32F0xx_HAL_Driver/Src/stm32f0xx_hal_rcc.c ****       {
 938              		.loc 1 559 51 view .LVU276
 559:Drivers/STM32F0xx_HAL_Driver/Src/stm32f0xx_hal_rcc.c ****       {
 939              		.loc 1 559 13 is_stmt 0 view .LVU277
 940 03cc 464B     		ldr	r3, .L121
 941 03ce 5B6B     		ldr	r3, [r3, #52]
 559:Drivers/STM32F0xx_HAL_Driver/Src/stm32f0xx_hal_rcc.c ****       {
 942              		.loc 1 559 51 view .LVU278
 943 03d0 9B07     		lsls	r3, r3, #30
 944 03d2 A3D5     		bpl	.L48
 561:Drivers/STM32F0xx_HAL_Driver/Src/stm32f0xx_hal_rcc.c ****         {
 945              		.loc 1 561 9 is_stmt 1 view .LVU279
 561:Drivers/STM32F0xx_HAL_Driver/Src/stm32f0xx_hal_rcc.c ****         {
 946              		.loc 1 561 13 is_stmt 0 view .LVU280
 947 03d4 FFF7FEFF 		bl	HAL_GetTick
 948              	.LVL55:
 561:Drivers/STM32F0xx_HAL_Driver/Src/stm32f0xx_hal_rcc.c ****         {
 949              		.loc 1 561 27 discriminator 1 view .LVU281
ARM GAS  C:\Users\0.0\AppData\Local\Temp\cceJoyYc.s 			page 30


 950 03d8 401B     		subs	r0, r0, r5
 561:Drivers/STM32F0xx_HAL_Driver/Src/stm32f0xx_hal_rcc.c ****         {
 951              		.loc 1 561 11 discriminator 1 view .LVU282
 952 03da 0228     		cmp	r0, #2
 953 03dc F6D9     		bls	.L53
 563:Drivers/STM32F0xx_HAL_Driver/Src/stm32f0xx_hal_rcc.c ****         }
 954              		.loc 1 563 18 view .LVU283
 955 03de 0320     		movs	r0, #3
 956 03e0 7EE0     		b	.L8
 957              	.LVL56:
 958              	.L113:
 578:Drivers/STM32F0xx_HAL_Driver/Src/stm32f0xx_hal_rcc.c ****     {
 959              		.loc 1 578 79 view .LVU284
 960 03e2 414B     		ldr	r3, .L121
 961 03e4 5B68     		ldr	r3, [r3, #4]
 962 03e6 C022     		movs	r2, #192
 963 03e8 5202     		lsls	r2, r2, #9
 964 03ea 1340     		ands	r3, r2
 578:Drivers/STM32F0xx_HAL_Driver/Src/stm32f0xx_hal_rcc.c ****     {
 965              		.loc 1 578 75 view .LVU285
 966 03ec 9342     		cmp	r3, r2
 967 03ee A4D1     		bne	.L57
 968              	.L56:
 580:Drivers/STM32F0xx_HAL_Driver/Src/stm32f0xx_hal_rcc.c ****       {
 969              		.loc 1 580 7 is_stmt 1 view .LVU286
 580:Drivers/STM32F0xx_HAL_Driver/Src/stm32f0xx_hal_rcc.c ****       {
 970              		.loc 1 580 11 is_stmt 0 view .LVU287
 971 03f0 3D4B     		ldr	r3, .L121
 972 03f2 5B6B     		ldr	r3, [r3, #52]
 580:Drivers/STM32F0xx_HAL_Driver/Src/stm32f0xx_hal_rcc.c ****       {
 973              		.loc 1 580 9 view .LVU288
 974 03f4 DB03     		lsls	r3, r3, #15
 975 03f6 02D5     		bpl	.L55
 580:Drivers/STM32F0xx_HAL_Driver/Src/stm32f0xx_hal_rcc.c ****       {
 976              		.loc 1 580 80 discriminator 1 view .LVU289
 977 03f8 236A     		ldr	r3, [r4, #32]
 580:Drivers/STM32F0xx_HAL_Driver/Src/stm32f0xx_hal_rcc.c ****       {
 978              		.loc 1 580 59 discriminator 1 view .LVU290
 979 03fa 012B     		cmp	r3, #1
 980 03fc 6DD1     		bne	.L84
 981              	.L55:
 602:Drivers/STM32F0xx_HAL_Driver/Src/stm32f0xx_hal_rcc.c ****           }
 603:Drivers/STM32F0xx_HAL_Driver/Src/stm32f0xx_hal_rcc.c ****         } 
 604:Drivers/STM32F0xx_HAL_Driver/Src/stm32f0xx_hal_rcc.c ****       }
 605:Drivers/STM32F0xx_HAL_Driver/Src/stm32f0xx_hal_rcc.c ****       else
 606:Drivers/STM32F0xx_HAL_Driver/Src/stm32f0xx_hal_rcc.c ****       {
 607:Drivers/STM32F0xx_HAL_Driver/Src/stm32f0xx_hal_rcc.c ****         /* Disable the Internal High Speed oscillator (HSI48). */
 608:Drivers/STM32F0xx_HAL_Driver/Src/stm32f0xx_hal_rcc.c ****         __HAL_RCC_HSI48_DISABLE();
 609:Drivers/STM32F0xx_HAL_Driver/Src/stm32f0xx_hal_rcc.c **** 
 610:Drivers/STM32F0xx_HAL_Driver/Src/stm32f0xx_hal_rcc.c ****         /* Get Start Tick */
 611:Drivers/STM32F0xx_HAL_Driver/Src/stm32f0xx_hal_rcc.c ****         tickstart = HAL_GetTick();
 612:Drivers/STM32F0xx_HAL_Driver/Src/stm32f0xx_hal_rcc.c ****       
 613:Drivers/STM32F0xx_HAL_Driver/Src/stm32f0xx_hal_rcc.c ****         /* Wait till HSI48 is ready */  
 614:Drivers/STM32F0xx_HAL_Driver/Src/stm32f0xx_hal_rcc.c ****         while(__HAL_RCC_GET_FLAG(RCC_FLAG_HSI48RDY) != RESET)
 615:Drivers/STM32F0xx_HAL_Driver/Src/stm32f0xx_hal_rcc.c ****         {
 616:Drivers/STM32F0xx_HAL_Driver/Src/stm32f0xx_hal_rcc.c ****           if((HAL_GetTick() - tickstart) > HSI48_TIMEOUT_VALUE)
 617:Drivers/STM32F0xx_HAL_Driver/Src/stm32f0xx_hal_rcc.c ****           {
ARM GAS  C:\Users\0.0\AppData\Local\Temp\cceJoyYc.s 			page 31


 618:Drivers/STM32F0xx_HAL_Driver/Src/stm32f0xx_hal_rcc.c ****             return HAL_TIMEOUT;
 619:Drivers/STM32F0xx_HAL_Driver/Src/stm32f0xx_hal_rcc.c ****           }
 620:Drivers/STM32F0xx_HAL_Driver/Src/stm32f0xx_hal_rcc.c ****         }
 621:Drivers/STM32F0xx_HAL_Driver/Src/stm32f0xx_hal_rcc.c ****       }
 622:Drivers/STM32F0xx_HAL_Driver/Src/stm32f0xx_hal_rcc.c ****     }
 623:Drivers/STM32F0xx_HAL_Driver/Src/stm32f0xx_hal_rcc.c ****   }
 624:Drivers/STM32F0xx_HAL_Driver/Src/stm32f0xx_hal_rcc.c **** #endif /* RCC_HSI48_SUPPORT */
 625:Drivers/STM32F0xx_HAL_Driver/Src/stm32f0xx_hal_rcc.c ****        
 626:Drivers/STM32F0xx_HAL_Driver/Src/stm32f0xx_hal_rcc.c ****   /*-------------------------------- PLL Configuration -----------------------*/
 627:Drivers/STM32F0xx_HAL_Driver/Src/stm32f0xx_hal_rcc.c ****   /* Check the parameters */
 628:Drivers/STM32F0xx_HAL_Driver/Src/stm32f0xx_hal_rcc.c ****   assert_param(IS_RCC_PLL(RCC_OscInitStruct->PLL.PLLState));
 982              		.loc 1 628 3 is_stmt 1 view .LVU291
 629:Drivers/STM32F0xx_HAL_Driver/Src/stm32f0xx_hal_rcc.c ****   if ((RCC_OscInitStruct->PLL.PLLState) != RCC_PLL_NONE)
 983              		.loc 1 629 3 view .LVU292
 984              		.loc 1 629 30 is_stmt 0 view .LVU293
 985 03fe 636A     		ldr	r3, [r4, #36]
 986              		.loc 1 629 6 view .LVU294
 987 0400 002B     		cmp	r3, #0
 988 0402 6CD0     		beq	.L87
 630:Drivers/STM32F0xx_HAL_Driver/Src/stm32f0xx_hal_rcc.c ****   {
 631:Drivers/STM32F0xx_HAL_Driver/Src/stm32f0xx_hal_rcc.c ****     /* Check if the PLL is used as system clock or not */
 632:Drivers/STM32F0xx_HAL_Driver/Src/stm32f0xx_hal_rcc.c ****     if(__HAL_RCC_GET_SYSCLK_SOURCE() != RCC_SYSCLKSOURCE_STATUS_PLLCLK)
 989              		.loc 1 632 5 is_stmt 1 view .LVU295
 990              		.loc 1 632 8 is_stmt 0 view .LVU296
 991 0404 384A     		ldr	r2, .L121
 992 0406 5168     		ldr	r1, [r2, #4]
 993 0408 0C22     		movs	r2, #12
 994 040a 0A40     		ands	r2, r1
 995              		.loc 1 632 7 view .LVU297
 996 040c 082A     		cmp	r2, #8
 997 040e 69D0     		beq	.L88
 633:Drivers/STM32F0xx_HAL_Driver/Src/stm32f0xx_hal_rcc.c ****     { 
 634:Drivers/STM32F0xx_HAL_Driver/Src/stm32f0xx_hal_rcc.c ****       if((RCC_OscInitStruct->PLL.PLLState) == RCC_PLL_ON)
 998              		.loc 1 634 7 is_stmt 1 view .LVU298
 999              		.loc 1 634 9 is_stmt 0 view .LVU299
 1000 0410 022B     		cmp	r3, #2
 1001 0412 25D0     		beq	.L115
 635:Drivers/STM32F0xx_HAL_Driver/Src/stm32f0xx_hal_rcc.c ****       {
 636:Drivers/STM32F0xx_HAL_Driver/Src/stm32f0xx_hal_rcc.c ****         /* Check the parameters */
 637:Drivers/STM32F0xx_HAL_Driver/Src/stm32f0xx_hal_rcc.c ****         assert_param(IS_RCC_PLLSOURCE(RCC_OscInitStruct->PLL.PLLSource));
 638:Drivers/STM32F0xx_HAL_Driver/Src/stm32f0xx_hal_rcc.c ****         assert_param(IS_RCC_PLL_MUL(RCC_OscInitStruct->PLL.PLLMUL));
 639:Drivers/STM32F0xx_HAL_Driver/Src/stm32f0xx_hal_rcc.c ****         assert_param(IS_RCC_PREDIV(RCC_OscInitStruct->PLL.PREDIV));
 640:Drivers/STM32F0xx_HAL_Driver/Src/stm32f0xx_hal_rcc.c ****   
 641:Drivers/STM32F0xx_HAL_Driver/Src/stm32f0xx_hal_rcc.c ****         /* Disable the main PLL. */
 642:Drivers/STM32F0xx_HAL_Driver/Src/stm32f0xx_hal_rcc.c ****         __HAL_RCC_PLL_DISABLE();
 643:Drivers/STM32F0xx_HAL_Driver/Src/stm32f0xx_hal_rcc.c ****         
 644:Drivers/STM32F0xx_HAL_Driver/Src/stm32f0xx_hal_rcc.c ****         /* Get Start Tick */
 645:Drivers/STM32F0xx_HAL_Driver/Src/stm32f0xx_hal_rcc.c ****         tickstart = HAL_GetTick();
 646:Drivers/STM32F0xx_HAL_Driver/Src/stm32f0xx_hal_rcc.c ****         
 647:Drivers/STM32F0xx_HAL_Driver/Src/stm32f0xx_hal_rcc.c ****         /* Wait till PLL is disabled */
 648:Drivers/STM32F0xx_HAL_Driver/Src/stm32f0xx_hal_rcc.c ****         while(__HAL_RCC_GET_FLAG(RCC_FLAG_PLLRDY)  != RESET)
 649:Drivers/STM32F0xx_HAL_Driver/Src/stm32f0xx_hal_rcc.c ****         {
 650:Drivers/STM32F0xx_HAL_Driver/Src/stm32f0xx_hal_rcc.c ****           if((HAL_GetTick() - tickstart ) > PLL_TIMEOUT_VALUE)
 651:Drivers/STM32F0xx_HAL_Driver/Src/stm32f0xx_hal_rcc.c ****           {
 652:Drivers/STM32F0xx_HAL_Driver/Src/stm32f0xx_hal_rcc.c ****             return HAL_TIMEOUT;
 653:Drivers/STM32F0xx_HAL_Driver/Src/stm32f0xx_hal_rcc.c ****           }
 654:Drivers/STM32F0xx_HAL_Driver/Src/stm32f0xx_hal_rcc.c ****         }
ARM GAS  C:\Users\0.0\AppData\Local\Temp\cceJoyYc.s 			page 32


 655:Drivers/STM32F0xx_HAL_Driver/Src/stm32f0xx_hal_rcc.c **** 
 656:Drivers/STM32F0xx_HAL_Driver/Src/stm32f0xx_hal_rcc.c ****         /* Configure the main PLL clock source, predivider and multiplication factor. */
 657:Drivers/STM32F0xx_HAL_Driver/Src/stm32f0xx_hal_rcc.c ****         __HAL_RCC_PLL_CONFIG(RCC_OscInitStruct->PLL.PLLSource,
 658:Drivers/STM32F0xx_HAL_Driver/Src/stm32f0xx_hal_rcc.c ****                              RCC_OscInitStruct->PLL.PREDIV,
 659:Drivers/STM32F0xx_HAL_Driver/Src/stm32f0xx_hal_rcc.c ****                              RCC_OscInitStruct->PLL.PLLMUL);
 660:Drivers/STM32F0xx_HAL_Driver/Src/stm32f0xx_hal_rcc.c ****         /* Enable the main PLL. */
 661:Drivers/STM32F0xx_HAL_Driver/Src/stm32f0xx_hal_rcc.c ****         __HAL_RCC_PLL_ENABLE();
 662:Drivers/STM32F0xx_HAL_Driver/Src/stm32f0xx_hal_rcc.c ****         
 663:Drivers/STM32F0xx_HAL_Driver/Src/stm32f0xx_hal_rcc.c ****         /* Get Start Tick */
 664:Drivers/STM32F0xx_HAL_Driver/Src/stm32f0xx_hal_rcc.c ****         tickstart = HAL_GetTick();
 665:Drivers/STM32F0xx_HAL_Driver/Src/stm32f0xx_hal_rcc.c ****         
 666:Drivers/STM32F0xx_HAL_Driver/Src/stm32f0xx_hal_rcc.c ****         /* Wait till PLL is ready */
 667:Drivers/STM32F0xx_HAL_Driver/Src/stm32f0xx_hal_rcc.c ****         while(__HAL_RCC_GET_FLAG(RCC_FLAG_PLLRDY)  == RESET)
 668:Drivers/STM32F0xx_HAL_Driver/Src/stm32f0xx_hal_rcc.c ****         {
 669:Drivers/STM32F0xx_HAL_Driver/Src/stm32f0xx_hal_rcc.c ****           if((HAL_GetTick() - tickstart ) > PLL_TIMEOUT_VALUE)
 670:Drivers/STM32F0xx_HAL_Driver/Src/stm32f0xx_hal_rcc.c ****           {
 671:Drivers/STM32F0xx_HAL_Driver/Src/stm32f0xx_hal_rcc.c ****             return HAL_TIMEOUT;
 672:Drivers/STM32F0xx_HAL_Driver/Src/stm32f0xx_hal_rcc.c ****           }
 673:Drivers/STM32F0xx_HAL_Driver/Src/stm32f0xx_hal_rcc.c ****         }
 674:Drivers/STM32F0xx_HAL_Driver/Src/stm32f0xx_hal_rcc.c ****       }
 675:Drivers/STM32F0xx_HAL_Driver/Src/stm32f0xx_hal_rcc.c ****       else
 676:Drivers/STM32F0xx_HAL_Driver/Src/stm32f0xx_hal_rcc.c ****       {
 677:Drivers/STM32F0xx_HAL_Driver/Src/stm32f0xx_hal_rcc.c ****         /* Disable the main PLL. */
 678:Drivers/STM32F0xx_HAL_Driver/Src/stm32f0xx_hal_rcc.c ****         __HAL_RCC_PLL_DISABLE();
 1002              		.loc 1 678 9 is_stmt 1 view .LVU300
 1003 0414 344A     		ldr	r2, .L121
 1004 0416 1368     		ldr	r3, [r2]
 1005 0418 3549     		ldr	r1, .L121+8
 1006 041a 0B40     		ands	r3, r1
 1007 041c 1360     		str	r3, [r2]
 679:Drivers/STM32F0xx_HAL_Driver/Src/stm32f0xx_hal_rcc.c ****  
 680:Drivers/STM32F0xx_HAL_Driver/Src/stm32f0xx_hal_rcc.c ****         /* Get Start Tick */
 681:Drivers/STM32F0xx_HAL_Driver/Src/stm32f0xx_hal_rcc.c ****         tickstart = HAL_GetTick();
 1008              		.loc 1 681 9 view .LVU301
 1009              		.loc 1 681 21 is_stmt 0 view .LVU302
 1010 041e FFF7FEFF 		bl	HAL_GetTick
 1011              	.LVL57:
 1012 0422 0400     		movs	r4, r0
 1013              	.LVL58:
 682:Drivers/STM32F0xx_HAL_Driver/Src/stm32f0xx_hal_rcc.c ****         
 683:Drivers/STM32F0xx_HAL_Driver/Src/stm32f0xx_hal_rcc.c ****         /* Wait till PLL is disabled */  
 684:Drivers/STM32F0xx_HAL_Driver/Src/stm32f0xx_hal_rcc.c ****         while(__HAL_RCC_GET_FLAG(RCC_FLAG_PLLRDY)  != RESET)
 1014              		.loc 1 684 9 is_stmt 1 view .LVU303
 1015              	.L68:
 1016              		.loc 1 684 52 view .LVU304
 1017              		.loc 1 684 15 is_stmt 0 view .LVU305
 1018 0424 304B     		ldr	r3, .L121
 1019 0426 1B68     		ldr	r3, [r3]
 1020              		.loc 1 684 52 view .LVU306
 1021 0428 9B01     		lsls	r3, r3, #6
 1022 042a 50D5     		bpl	.L116
 685:Drivers/STM32F0xx_HAL_Driver/Src/stm32f0xx_hal_rcc.c ****         {
 686:Drivers/STM32F0xx_HAL_Driver/Src/stm32f0xx_hal_rcc.c ****           if((HAL_GetTick() - tickstart ) > PLL_TIMEOUT_VALUE)
 1023              		.loc 1 686 11 is_stmt 1 view .LVU307
 1024              		.loc 1 686 15 is_stmt 0 view .LVU308
 1025 042c FFF7FEFF 		bl	HAL_GetTick
 1026              	.LVL59:
ARM GAS  C:\Users\0.0\AppData\Local\Temp\cceJoyYc.s 			page 33


 1027              		.loc 1 686 29 discriminator 1 view .LVU309
 1028 0430 001B     		subs	r0, r0, r4
 1029              		.loc 1 686 13 discriminator 1 view .LVU310
 1030 0432 0228     		cmp	r0, #2
 1031 0434 F6D9     		bls	.L68
 687:Drivers/STM32F0xx_HAL_Driver/Src/stm32f0xx_hal_rcc.c ****           {
 688:Drivers/STM32F0xx_HAL_Driver/Src/stm32f0xx_hal_rcc.c ****             return HAL_TIMEOUT;
 1032              		.loc 1 688 20 view .LVU311
 1033 0436 0320     		movs	r0, #3
 1034 0438 52E0     		b	.L8
 1035              	.LVL60:
 1036              	.L58:
 608:Drivers/STM32F0xx_HAL_Driver/Src/stm32f0xx_hal_rcc.c **** 
 1037              		.loc 1 608 9 is_stmt 1 view .LVU312
 1038 043a 2B4A     		ldr	r2, .L121
 1039 043c 536B     		ldr	r3, [r2, #52]
 1040 043e 2D49     		ldr	r1, .L121+12
 1041 0440 0B40     		ands	r3, r1
 1042 0442 5363     		str	r3, [r2, #52]
 611:Drivers/STM32F0xx_HAL_Driver/Src/stm32f0xx_hal_rcc.c ****       
 1043              		.loc 1 611 9 view .LVU313
 611:Drivers/STM32F0xx_HAL_Driver/Src/stm32f0xx_hal_rcc.c ****       
 1044              		.loc 1 611 21 is_stmt 0 view .LVU314
 1045 0444 FFF7FEFF 		bl	HAL_GetTick
 1046              	.LVL61:
 1047 0448 0500     		movs	r5, r0
 1048              	.LVL62:
 614:Drivers/STM32F0xx_HAL_Driver/Src/stm32f0xx_hal_rcc.c ****         {
 1049              		.loc 1 614 9 is_stmt 1 view .LVU315
 1050              	.L61:
 614:Drivers/STM32F0xx_HAL_Driver/Src/stm32f0xx_hal_rcc.c ****         {
 1051              		.loc 1 614 53 view .LVU316
 614:Drivers/STM32F0xx_HAL_Driver/Src/stm32f0xx_hal_rcc.c ****         {
 1052              		.loc 1 614 15 is_stmt 0 view .LVU317
 1053 044a 274B     		ldr	r3, .L121
 1054 044c 5B6B     		ldr	r3, [r3, #52]
 614:Drivers/STM32F0xx_HAL_Driver/Src/stm32f0xx_hal_rcc.c ****         {
 1055              		.loc 1 614 53 view .LVU318
 1056 044e DB03     		lsls	r3, r3, #15
 1057 0450 D5D5     		bpl	.L55
 616:Drivers/STM32F0xx_HAL_Driver/Src/stm32f0xx_hal_rcc.c ****           {
 1058              		.loc 1 616 11 is_stmt 1 view .LVU319
 616:Drivers/STM32F0xx_HAL_Driver/Src/stm32f0xx_hal_rcc.c ****           {
 1059              		.loc 1 616 15 is_stmt 0 view .LVU320
 1060 0452 FFF7FEFF 		bl	HAL_GetTick
 1061              	.LVL63:
 616:Drivers/STM32F0xx_HAL_Driver/Src/stm32f0xx_hal_rcc.c ****           {
 1062              		.loc 1 616 29 discriminator 1 view .LVU321
 1063 0456 401B     		subs	r0, r0, r5
 616:Drivers/STM32F0xx_HAL_Driver/Src/stm32f0xx_hal_rcc.c ****           {
 1064              		.loc 1 616 13 discriminator 1 view .LVU322
 1065 0458 0228     		cmp	r0, #2
 1066 045a F6D9     		bls	.L61
 618:Drivers/STM32F0xx_HAL_Driver/Src/stm32f0xx_hal_rcc.c ****           }
 1067              		.loc 1 618 20 view .LVU323
 1068 045c 0320     		movs	r0, #3
 1069 045e 3FE0     		b	.L8
ARM GAS  C:\Users\0.0\AppData\Local\Temp\cceJoyYc.s 			page 34


 1070              	.LVL64:
 1071              	.L115:
 637:Drivers/STM32F0xx_HAL_Driver/Src/stm32f0xx_hal_rcc.c ****         assert_param(IS_RCC_PLL_MUL(RCC_OscInitStruct->PLL.PLLMUL));
 1072              		.loc 1 637 9 is_stmt 1 view .LVU324
 638:Drivers/STM32F0xx_HAL_Driver/Src/stm32f0xx_hal_rcc.c ****         assert_param(IS_RCC_PREDIV(RCC_OscInitStruct->PLL.PREDIV));
 1073              		.loc 1 638 9 view .LVU325
 639:Drivers/STM32F0xx_HAL_Driver/Src/stm32f0xx_hal_rcc.c ****   
 1074              		.loc 1 639 9 view .LVU326
 642:Drivers/STM32F0xx_HAL_Driver/Src/stm32f0xx_hal_rcc.c ****         
 1075              		.loc 1 642 9 view .LVU327
 1076 0460 214A     		ldr	r2, .L121
 1077 0462 1368     		ldr	r3, [r2]
 1078 0464 2249     		ldr	r1, .L121+8
 1079 0466 0B40     		ands	r3, r1
 1080 0468 1360     		str	r3, [r2]
 645:Drivers/STM32F0xx_HAL_Driver/Src/stm32f0xx_hal_rcc.c ****         
 1081              		.loc 1 645 9 view .LVU328
 645:Drivers/STM32F0xx_HAL_Driver/Src/stm32f0xx_hal_rcc.c ****         
 1082              		.loc 1 645 21 is_stmt 0 view .LVU329
 1083 046a FFF7FEFF 		bl	HAL_GetTick
 1084              	.LVL65:
 1085 046e 0500     		movs	r5, r0
 1086              	.LVL66:
 648:Drivers/STM32F0xx_HAL_Driver/Src/stm32f0xx_hal_rcc.c ****         {
 1087              		.loc 1 648 9 is_stmt 1 view .LVU330
 1088              	.L64:
 648:Drivers/STM32F0xx_HAL_Driver/Src/stm32f0xx_hal_rcc.c ****         {
 1089              		.loc 1 648 52 view .LVU331
 648:Drivers/STM32F0xx_HAL_Driver/Src/stm32f0xx_hal_rcc.c ****         {
 1090              		.loc 1 648 15 is_stmt 0 view .LVU332
 1091 0470 1D4B     		ldr	r3, .L121
 1092 0472 1B68     		ldr	r3, [r3]
 648:Drivers/STM32F0xx_HAL_Driver/Src/stm32f0xx_hal_rcc.c ****         {
 1093              		.loc 1 648 52 view .LVU333
 1094 0474 9B01     		lsls	r3, r3, #6
 1095 0476 06D5     		bpl	.L117
 650:Drivers/STM32F0xx_HAL_Driver/Src/stm32f0xx_hal_rcc.c ****           {
 1096              		.loc 1 650 11 is_stmt 1 view .LVU334
 650:Drivers/STM32F0xx_HAL_Driver/Src/stm32f0xx_hal_rcc.c ****           {
 1097              		.loc 1 650 15 is_stmt 0 view .LVU335
 1098 0478 FFF7FEFF 		bl	HAL_GetTick
 1099              	.LVL67:
 650:Drivers/STM32F0xx_HAL_Driver/Src/stm32f0xx_hal_rcc.c ****           {
 1100              		.loc 1 650 29 discriminator 1 view .LVU336
 1101 047c 401B     		subs	r0, r0, r5
 650:Drivers/STM32F0xx_HAL_Driver/Src/stm32f0xx_hal_rcc.c ****           {
 1102              		.loc 1 650 13 discriminator 1 view .LVU337
 1103 047e 0228     		cmp	r0, #2
 1104 0480 F6D9     		bls	.L64
 652:Drivers/STM32F0xx_HAL_Driver/Src/stm32f0xx_hal_rcc.c ****           }
 1105              		.loc 1 652 20 view .LVU338
 1106 0482 0320     		movs	r0, #3
 1107 0484 2CE0     		b	.L8
 1108              	.L117:
 657:Drivers/STM32F0xx_HAL_Driver/Src/stm32f0xx_hal_rcc.c ****                              RCC_OscInitStruct->PLL.PREDIV,
 1109              		.loc 1 657 9 is_stmt 1 view .LVU339
 657:Drivers/STM32F0xx_HAL_Driver/Src/stm32f0xx_hal_rcc.c ****                              RCC_OscInitStruct->PLL.PREDIV,
ARM GAS  C:\Users\0.0\AppData\Local\Temp\cceJoyYc.s 			page 35


 1110              		.loc 1 657 9 view .LVU340
 1111 0486 184B     		ldr	r3, .L121
 1112 0488 DA6A     		ldr	r2, [r3, #44]
 1113 048a 0F21     		movs	r1, #15
 1114 048c 8A43     		bics	r2, r1
 1115 048e 216B     		ldr	r1, [r4, #48]
 1116 0490 0A43     		orrs	r2, r1
 1117 0492 DA62     		str	r2, [r3, #44]
 657:Drivers/STM32F0xx_HAL_Driver/Src/stm32f0xx_hal_rcc.c ****                              RCC_OscInitStruct->PLL.PREDIV,
 1118              		.loc 1 657 9 view .LVU341
 1119 0494 5A68     		ldr	r2, [r3, #4]
 1120 0496 1849     		ldr	r1, .L121+16
 1121 0498 0A40     		ands	r2, r1
 1122 049a E16A     		ldr	r1, [r4, #44]
 1123 049c A06A     		ldr	r0, [r4, #40]
 1124 049e 0143     		orrs	r1, r0
 1125 04a0 0A43     		orrs	r2, r1
 1126 04a2 5A60     		str	r2, [r3, #4]
 657:Drivers/STM32F0xx_HAL_Driver/Src/stm32f0xx_hal_rcc.c ****                              RCC_OscInitStruct->PLL.PREDIV,
 1127              		.loc 1 657 9 view .LVU342
 661:Drivers/STM32F0xx_HAL_Driver/Src/stm32f0xx_hal_rcc.c ****         
 1128              		.loc 1 661 9 view .LVU343
 1129 04a4 1968     		ldr	r1, [r3]
 1130 04a6 8022     		movs	r2, #128
 1131 04a8 5204     		lsls	r2, r2, #17
 1132 04aa 0A43     		orrs	r2, r1
 1133 04ac 1A60     		str	r2, [r3]
 664:Drivers/STM32F0xx_HAL_Driver/Src/stm32f0xx_hal_rcc.c ****         
 1134              		.loc 1 664 9 view .LVU344
 664:Drivers/STM32F0xx_HAL_Driver/Src/stm32f0xx_hal_rcc.c ****         
 1135              		.loc 1 664 21 is_stmt 0 view .LVU345
 1136 04ae FFF7FEFF 		bl	HAL_GetTick
 1137              	.LVL68:
 1138 04b2 0400     		movs	r4, r0
 1139              	.LVL69:
 667:Drivers/STM32F0xx_HAL_Driver/Src/stm32f0xx_hal_rcc.c ****         {
 1140              		.loc 1 667 9 is_stmt 1 view .LVU346
 1141              	.L66:
 667:Drivers/STM32F0xx_HAL_Driver/Src/stm32f0xx_hal_rcc.c ****         {
 1142              		.loc 1 667 52 view .LVU347
 667:Drivers/STM32F0xx_HAL_Driver/Src/stm32f0xx_hal_rcc.c ****         {
 1143              		.loc 1 667 15 is_stmt 0 view .LVU348
 1144 04b4 0C4B     		ldr	r3, .L121
 1145 04b6 1B68     		ldr	r3, [r3]
 667:Drivers/STM32F0xx_HAL_Driver/Src/stm32f0xx_hal_rcc.c ****         {
 1146              		.loc 1 667 52 view .LVU349
 1147 04b8 9B01     		lsls	r3, r3, #6
 1148 04ba 06D4     		bmi	.L118
 669:Drivers/STM32F0xx_HAL_Driver/Src/stm32f0xx_hal_rcc.c ****           {
 1149              		.loc 1 669 11 is_stmt 1 view .LVU350
 669:Drivers/STM32F0xx_HAL_Driver/Src/stm32f0xx_hal_rcc.c ****           {
 1150              		.loc 1 669 15 is_stmt 0 view .LVU351
 1151 04bc FFF7FEFF 		bl	HAL_GetTick
 1152              	.LVL70:
 669:Drivers/STM32F0xx_HAL_Driver/Src/stm32f0xx_hal_rcc.c ****           {
 1153              		.loc 1 669 29 discriminator 1 view .LVU352
 1154 04c0 001B     		subs	r0, r0, r4
ARM GAS  C:\Users\0.0\AppData\Local\Temp\cceJoyYc.s 			page 36


 669:Drivers/STM32F0xx_HAL_Driver/Src/stm32f0xx_hal_rcc.c ****           {
 1155              		.loc 1 669 13 discriminator 1 view .LVU353
 1156 04c2 0228     		cmp	r0, #2
 1157 04c4 F6D9     		bls	.L66
 671:Drivers/STM32F0xx_HAL_Driver/Src/stm32f0xx_hal_rcc.c ****           }
 1158              		.loc 1 671 20 view .LVU354
 1159 04c6 0320     		movs	r0, #3
 1160 04c8 0AE0     		b	.L8
 1161              	.L118:
 689:Drivers/STM32F0xx_HAL_Driver/Src/stm32f0xx_hal_rcc.c ****           }
 690:Drivers/STM32F0xx_HAL_Driver/Src/stm32f0xx_hal_rcc.c ****         }
 691:Drivers/STM32F0xx_HAL_Driver/Src/stm32f0xx_hal_rcc.c ****       }
 692:Drivers/STM32F0xx_HAL_Driver/Src/stm32f0xx_hal_rcc.c ****     }
 693:Drivers/STM32F0xx_HAL_Driver/Src/stm32f0xx_hal_rcc.c ****     else
 694:Drivers/STM32F0xx_HAL_Driver/Src/stm32f0xx_hal_rcc.c ****     {
 695:Drivers/STM32F0xx_HAL_Driver/Src/stm32f0xx_hal_rcc.c ****       return HAL_ERROR;
 696:Drivers/STM32F0xx_HAL_Driver/Src/stm32f0xx_hal_rcc.c ****     }
 697:Drivers/STM32F0xx_HAL_Driver/Src/stm32f0xx_hal_rcc.c ****   }
 698:Drivers/STM32F0xx_HAL_Driver/Src/stm32f0xx_hal_rcc.c ****   
 699:Drivers/STM32F0xx_HAL_Driver/Src/stm32f0xx_hal_rcc.c ****   return HAL_OK;
 1162              		.loc 1 699 10 view .LVU355
 1163 04ca 0020     		movs	r0, #0
 1164 04cc 08E0     		b	.L8
 1165              	.L116:
 1166              		.loc 1 699 10 view .LVU356
 1167 04ce 0020     		movs	r0, #0
 1168 04d0 06E0     		b	.L8
 1169              	.LVL71:
 1170              	.L104:
 289:Drivers/STM32F0xx_HAL_Driver/Src/stm32f0xx_hal_rcc.c ****       }
 1171              		.loc 1 289 16 view .LVU357
 1172 04d2 0120     		movs	r0, #1
 1173              	.LVL72:
 289:Drivers/STM32F0xx_HAL_Driver/Src/stm32f0xx_hal_rcc.c ****       }
 1174              		.loc 1 289 16 view .LVU358
 1175 04d4 04E0     		b	.L8
 1176              	.LVL73:
 1177              	.L73:
 343:Drivers/STM32F0xx_HAL_Driver/Src/stm32f0xx_hal_rcc.c ****       }
 1178              		.loc 1 343 16 view .LVU359
 1179 04d6 0120     		movs	r0, #1
 1180 04d8 02E0     		b	.L8
 1181              	.L84:
 582:Drivers/STM32F0xx_HAL_Driver/Src/stm32f0xx_hal_rcc.c ****       }
 1182              		.loc 1 582 16 view .LVU360
 1183 04da 0120     		movs	r0, #1
 1184 04dc 00E0     		b	.L8
 1185              	.L87:
 1186              		.loc 1 699 10 view .LVU361
 1187 04de 0020     		movs	r0, #0
 1188              	.LVL74:
 1189              	.L8:
 700:Drivers/STM32F0xx_HAL_Driver/Src/stm32f0xx_hal_rcc.c **** }
 1190              		.loc 1 700 1 view .LVU362
 1191 04e0 02B0     		add	sp, sp, #8
 1192              		@ sp needed
 1193 04e2 70BD     		pop	{r4, r5, r6, pc}
ARM GAS  C:\Users\0.0\AppData\Local\Temp\cceJoyYc.s 			page 37


 1194              	.LVL75:
 1195              	.L88:
 695:Drivers/STM32F0xx_HAL_Driver/Src/stm32f0xx_hal_rcc.c ****     }
 1196              		.loc 1 695 14 view .LVU363
 1197 04e4 0120     		movs	r0, #1
 1198 04e6 FBE7     		b	.L8
 1199              	.L122:
 1200              		.align	2
 1201              	.L121:
 1202 04e8 00100240 		.word	1073876992
 1203 04ec FFFFFFEF 		.word	-268435457
 1204 04f0 FFFFFFFE 		.word	-16777217
 1205 04f4 FFFFFEFF 		.word	-65537
 1206 04f8 FF7FC2FF 		.word	-4030465
 1207              		.cfi_endproc
 1208              	.LFE38:
 1210              		.section	.text.HAL_RCC_MCOConfig,"ax",%progbits
 1211              		.align	1
 1212              		.global	HAL_RCC_MCOConfig
 1213              		.syntax unified
 1214              		.code	16
 1215              		.thumb_func
 1217              	HAL_RCC_MCOConfig:
 1218              	.LVL76:
 1219              	.LFB40:
 701:Drivers/STM32F0xx_HAL_Driver/Src/stm32f0xx_hal_rcc.c **** 
 702:Drivers/STM32F0xx_HAL_Driver/Src/stm32f0xx_hal_rcc.c **** /**
 703:Drivers/STM32F0xx_HAL_Driver/Src/stm32f0xx_hal_rcc.c ****   * @brief  Initializes the CPU, AHB and APB buses clocks according to the specified 
 704:Drivers/STM32F0xx_HAL_Driver/Src/stm32f0xx_hal_rcc.c ****   *         parameters in the RCC_ClkInitStruct.
 705:Drivers/STM32F0xx_HAL_Driver/Src/stm32f0xx_hal_rcc.c ****   * @param  RCC_ClkInitStruct pointer to an RCC_OscInitTypeDef structure that
 706:Drivers/STM32F0xx_HAL_Driver/Src/stm32f0xx_hal_rcc.c ****   *         contains the configuration information for the RCC peripheral.
 707:Drivers/STM32F0xx_HAL_Driver/Src/stm32f0xx_hal_rcc.c ****   * @param  FLatency FLASH Latency                   
 708:Drivers/STM32F0xx_HAL_Driver/Src/stm32f0xx_hal_rcc.c ****   *          The value of this parameter depend on device used within the same series
 709:Drivers/STM32F0xx_HAL_Driver/Src/stm32f0xx_hal_rcc.c ****   * @note   The SystemCoreClock CMSIS variable is used to store System Clock Frequency 
 710:Drivers/STM32F0xx_HAL_Driver/Src/stm32f0xx_hal_rcc.c ****   *         and updated by @ref HAL_RCC_GetHCLKFreq() function called within this function
 711:Drivers/STM32F0xx_HAL_Driver/Src/stm32f0xx_hal_rcc.c ****   *
 712:Drivers/STM32F0xx_HAL_Driver/Src/stm32f0xx_hal_rcc.c ****   * @note   The HSI is used (enabled by hardware) as system clock source after
 713:Drivers/STM32F0xx_HAL_Driver/Src/stm32f0xx_hal_rcc.c ****   *         start-up from Reset, wake-up from STOP and STANDBY mode, or in case
 714:Drivers/STM32F0xx_HAL_Driver/Src/stm32f0xx_hal_rcc.c ****   *         of failure of the HSE used directly or indirectly as system clock
 715:Drivers/STM32F0xx_HAL_Driver/Src/stm32f0xx_hal_rcc.c ****   *         (if the Clock Security System CSS is enabled).
 716:Drivers/STM32F0xx_HAL_Driver/Src/stm32f0xx_hal_rcc.c ****   *           
 717:Drivers/STM32F0xx_HAL_Driver/Src/stm32f0xx_hal_rcc.c ****   * @note   A switch from one clock source to another occurs only if the target
 718:Drivers/STM32F0xx_HAL_Driver/Src/stm32f0xx_hal_rcc.c ****   *         clock source is ready (clock stable after start-up delay or PLL locked). 
 719:Drivers/STM32F0xx_HAL_Driver/Src/stm32f0xx_hal_rcc.c ****   *         If a clock source which is not yet ready is selected, the switch will
 720:Drivers/STM32F0xx_HAL_Driver/Src/stm32f0xx_hal_rcc.c ****   *         occur when the clock source will be ready. 
 721:Drivers/STM32F0xx_HAL_Driver/Src/stm32f0xx_hal_rcc.c ****   *         You can use @ref HAL_RCC_GetClockConfig() function to know which clock is
 722:Drivers/STM32F0xx_HAL_Driver/Src/stm32f0xx_hal_rcc.c ****   *         currently used as system clock source.
 723:Drivers/STM32F0xx_HAL_Driver/Src/stm32f0xx_hal_rcc.c ****   * @retval HAL status
 724:Drivers/STM32F0xx_HAL_Driver/Src/stm32f0xx_hal_rcc.c ****   */
 725:Drivers/STM32F0xx_HAL_Driver/Src/stm32f0xx_hal_rcc.c **** HAL_StatusTypeDef HAL_RCC_ClockConfig(RCC_ClkInitTypeDef  *RCC_ClkInitStruct, uint32_t FLatency)
 726:Drivers/STM32F0xx_HAL_Driver/Src/stm32f0xx_hal_rcc.c **** {
 727:Drivers/STM32F0xx_HAL_Driver/Src/stm32f0xx_hal_rcc.c ****   uint32_t tickstart = 0U;
 728:Drivers/STM32F0xx_HAL_Driver/Src/stm32f0xx_hal_rcc.c ****   
 729:Drivers/STM32F0xx_HAL_Driver/Src/stm32f0xx_hal_rcc.c ****   /* Check the parameters */
 730:Drivers/STM32F0xx_HAL_Driver/Src/stm32f0xx_hal_rcc.c ****   assert_param(RCC_ClkInitStruct != NULL);
 731:Drivers/STM32F0xx_HAL_Driver/Src/stm32f0xx_hal_rcc.c ****   assert_param(IS_RCC_CLOCKTYPE(RCC_ClkInitStruct->ClockType));
 732:Drivers/STM32F0xx_HAL_Driver/Src/stm32f0xx_hal_rcc.c ****   assert_param(IS_FLASH_LATENCY(FLatency));
ARM GAS  C:\Users\0.0\AppData\Local\Temp\cceJoyYc.s 			page 38


 733:Drivers/STM32F0xx_HAL_Driver/Src/stm32f0xx_hal_rcc.c **** 
 734:Drivers/STM32F0xx_HAL_Driver/Src/stm32f0xx_hal_rcc.c ****   /* To correctly read data from FLASH memory, the number of wait states (LATENCY) 
 735:Drivers/STM32F0xx_HAL_Driver/Src/stm32f0xx_hal_rcc.c ****   must be correctly programmed according to the frequency of the CPU clock 
 736:Drivers/STM32F0xx_HAL_Driver/Src/stm32f0xx_hal_rcc.c ****     (HCLK) of the device. */
 737:Drivers/STM32F0xx_HAL_Driver/Src/stm32f0xx_hal_rcc.c **** 
 738:Drivers/STM32F0xx_HAL_Driver/Src/stm32f0xx_hal_rcc.c ****   /* Increasing the number of wait states because of higher CPU frequency */
 739:Drivers/STM32F0xx_HAL_Driver/Src/stm32f0xx_hal_rcc.c ****   if(FLatency > (FLASH->ACR & FLASH_ACR_LATENCY))
 740:Drivers/STM32F0xx_HAL_Driver/Src/stm32f0xx_hal_rcc.c ****   {    
 741:Drivers/STM32F0xx_HAL_Driver/Src/stm32f0xx_hal_rcc.c ****     /* Program the new number of wait states to the LATENCY bits in the FLASH_ACR register */
 742:Drivers/STM32F0xx_HAL_Driver/Src/stm32f0xx_hal_rcc.c ****     __HAL_FLASH_SET_LATENCY(FLatency);
 743:Drivers/STM32F0xx_HAL_Driver/Src/stm32f0xx_hal_rcc.c ****     
 744:Drivers/STM32F0xx_HAL_Driver/Src/stm32f0xx_hal_rcc.c ****     /* Check that the new number of wait states is taken into account to access the Flash
 745:Drivers/STM32F0xx_HAL_Driver/Src/stm32f0xx_hal_rcc.c ****     memory by reading the FLASH_ACR register */
 746:Drivers/STM32F0xx_HAL_Driver/Src/stm32f0xx_hal_rcc.c ****     if((FLASH->ACR & FLASH_ACR_LATENCY) != FLatency)
 747:Drivers/STM32F0xx_HAL_Driver/Src/stm32f0xx_hal_rcc.c ****     {
 748:Drivers/STM32F0xx_HAL_Driver/Src/stm32f0xx_hal_rcc.c ****       return HAL_ERROR;
 749:Drivers/STM32F0xx_HAL_Driver/Src/stm32f0xx_hal_rcc.c ****     }
 750:Drivers/STM32F0xx_HAL_Driver/Src/stm32f0xx_hal_rcc.c ****   }
 751:Drivers/STM32F0xx_HAL_Driver/Src/stm32f0xx_hal_rcc.c **** 
 752:Drivers/STM32F0xx_HAL_Driver/Src/stm32f0xx_hal_rcc.c ****   /*-------------------------- HCLK Configuration --------------------------*/
 753:Drivers/STM32F0xx_HAL_Driver/Src/stm32f0xx_hal_rcc.c ****   if(((RCC_ClkInitStruct->ClockType) & RCC_CLOCKTYPE_HCLK) == RCC_CLOCKTYPE_HCLK)
 754:Drivers/STM32F0xx_HAL_Driver/Src/stm32f0xx_hal_rcc.c ****   {
 755:Drivers/STM32F0xx_HAL_Driver/Src/stm32f0xx_hal_rcc.c ****     assert_param(IS_RCC_HCLK(RCC_ClkInitStruct->AHBCLKDivider));
 756:Drivers/STM32F0xx_HAL_Driver/Src/stm32f0xx_hal_rcc.c ****     MODIFY_REG(RCC->CFGR, RCC_CFGR_HPRE, RCC_ClkInitStruct->AHBCLKDivider);
 757:Drivers/STM32F0xx_HAL_Driver/Src/stm32f0xx_hal_rcc.c ****   }
 758:Drivers/STM32F0xx_HAL_Driver/Src/stm32f0xx_hal_rcc.c **** 
 759:Drivers/STM32F0xx_HAL_Driver/Src/stm32f0xx_hal_rcc.c ****   /*------------------------- SYSCLK Configuration ---------------------------*/ 
 760:Drivers/STM32F0xx_HAL_Driver/Src/stm32f0xx_hal_rcc.c ****   if(((RCC_ClkInitStruct->ClockType) & RCC_CLOCKTYPE_SYSCLK) == RCC_CLOCKTYPE_SYSCLK)
 761:Drivers/STM32F0xx_HAL_Driver/Src/stm32f0xx_hal_rcc.c ****   {    
 762:Drivers/STM32F0xx_HAL_Driver/Src/stm32f0xx_hal_rcc.c ****     assert_param(IS_RCC_SYSCLKSOURCE(RCC_ClkInitStruct->SYSCLKSource));
 763:Drivers/STM32F0xx_HAL_Driver/Src/stm32f0xx_hal_rcc.c ****     
 764:Drivers/STM32F0xx_HAL_Driver/Src/stm32f0xx_hal_rcc.c ****     /* HSE is selected as System Clock Source */
 765:Drivers/STM32F0xx_HAL_Driver/Src/stm32f0xx_hal_rcc.c ****     if(RCC_ClkInitStruct->SYSCLKSource == RCC_SYSCLKSOURCE_HSE)
 766:Drivers/STM32F0xx_HAL_Driver/Src/stm32f0xx_hal_rcc.c ****     {
 767:Drivers/STM32F0xx_HAL_Driver/Src/stm32f0xx_hal_rcc.c ****       /* Check the HSE ready flag */  
 768:Drivers/STM32F0xx_HAL_Driver/Src/stm32f0xx_hal_rcc.c ****       if(__HAL_RCC_GET_FLAG(RCC_FLAG_HSERDY) == RESET)
 769:Drivers/STM32F0xx_HAL_Driver/Src/stm32f0xx_hal_rcc.c ****       {
 770:Drivers/STM32F0xx_HAL_Driver/Src/stm32f0xx_hal_rcc.c ****         return HAL_ERROR;
 771:Drivers/STM32F0xx_HAL_Driver/Src/stm32f0xx_hal_rcc.c ****       }
 772:Drivers/STM32F0xx_HAL_Driver/Src/stm32f0xx_hal_rcc.c ****     }
 773:Drivers/STM32F0xx_HAL_Driver/Src/stm32f0xx_hal_rcc.c ****     /* PLL is selected as System Clock Source */
 774:Drivers/STM32F0xx_HAL_Driver/Src/stm32f0xx_hal_rcc.c ****     else if(RCC_ClkInitStruct->SYSCLKSource == RCC_SYSCLKSOURCE_PLLCLK)
 775:Drivers/STM32F0xx_HAL_Driver/Src/stm32f0xx_hal_rcc.c ****     {
 776:Drivers/STM32F0xx_HAL_Driver/Src/stm32f0xx_hal_rcc.c ****       /* Check the PLL ready flag */  
 777:Drivers/STM32F0xx_HAL_Driver/Src/stm32f0xx_hal_rcc.c ****       if(__HAL_RCC_GET_FLAG(RCC_FLAG_PLLRDY) == RESET)
 778:Drivers/STM32F0xx_HAL_Driver/Src/stm32f0xx_hal_rcc.c ****       {
 779:Drivers/STM32F0xx_HAL_Driver/Src/stm32f0xx_hal_rcc.c ****         return HAL_ERROR;
 780:Drivers/STM32F0xx_HAL_Driver/Src/stm32f0xx_hal_rcc.c ****       }
 781:Drivers/STM32F0xx_HAL_Driver/Src/stm32f0xx_hal_rcc.c ****     }
 782:Drivers/STM32F0xx_HAL_Driver/Src/stm32f0xx_hal_rcc.c **** #if defined(RCC_CFGR_SWS_HSI48)
 783:Drivers/STM32F0xx_HAL_Driver/Src/stm32f0xx_hal_rcc.c ****     /* HSI48 is selected as System Clock Source */
 784:Drivers/STM32F0xx_HAL_Driver/Src/stm32f0xx_hal_rcc.c ****     else if(RCC_ClkInitStruct->SYSCLKSource == RCC_SYSCLKSOURCE_HSI48)
 785:Drivers/STM32F0xx_HAL_Driver/Src/stm32f0xx_hal_rcc.c ****     {
 786:Drivers/STM32F0xx_HAL_Driver/Src/stm32f0xx_hal_rcc.c ****       /* Check the HSI48 ready flag */
 787:Drivers/STM32F0xx_HAL_Driver/Src/stm32f0xx_hal_rcc.c ****       if(__HAL_RCC_GET_FLAG(RCC_FLAG_HSI48RDY) == RESET)
 788:Drivers/STM32F0xx_HAL_Driver/Src/stm32f0xx_hal_rcc.c ****       {
 789:Drivers/STM32F0xx_HAL_Driver/Src/stm32f0xx_hal_rcc.c ****         return HAL_ERROR;
ARM GAS  C:\Users\0.0\AppData\Local\Temp\cceJoyYc.s 			page 39


 790:Drivers/STM32F0xx_HAL_Driver/Src/stm32f0xx_hal_rcc.c ****       }
 791:Drivers/STM32F0xx_HAL_Driver/Src/stm32f0xx_hal_rcc.c ****     }
 792:Drivers/STM32F0xx_HAL_Driver/Src/stm32f0xx_hal_rcc.c **** #endif /* RCC_CFGR_SWS_HSI48 */
 793:Drivers/STM32F0xx_HAL_Driver/Src/stm32f0xx_hal_rcc.c ****     /* HSI is selected as System Clock Source */
 794:Drivers/STM32F0xx_HAL_Driver/Src/stm32f0xx_hal_rcc.c ****     else
 795:Drivers/STM32F0xx_HAL_Driver/Src/stm32f0xx_hal_rcc.c ****     {
 796:Drivers/STM32F0xx_HAL_Driver/Src/stm32f0xx_hal_rcc.c ****       /* Check the HSI ready flag */  
 797:Drivers/STM32F0xx_HAL_Driver/Src/stm32f0xx_hal_rcc.c ****       if(__HAL_RCC_GET_FLAG(RCC_FLAG_HSIRDY) == RESET)
 798:Drivers/STM32F0xx_HAL_Driver/Src/stm32f0xx_hal_rcc.c ****       {
 799:Drivers/STM32F0xx_HAL_Driver/Src/stm32f0xx_hal_rcc.c ****         return HAL_ERROR;
 800:Drivers/STM32F0xx_HAL_Driver/Src/stm32f0xx_hal_rcc.c ****       }
 801:Drivers/STM32F0xx_HAL_Driver/Src/stm32f0xx_hal_rcc.c ****     }
 802:Drivers/STM32F0xx_HAL_Driver/Src/stm32f0xx_hal_rcc.c ****     __HAL_RCC_SYSCLK_CONFIG(RCC_ClkInitStruct->SYSCLKSource);
 803:Drivers/STM32F0xx_HAL_Driver/Src/stm32f0xx_hal_rcc.c **** 
 804:Drivers/STM32F0xx_HAL_Driver/Src/stm32f0xx_hal_rcc.c ****     /* Get Start Tick */
 805:Drivers/STM32F0xx_HAL_Driver/Src/stm32f0xx_hal_rcc.c ****     tickstart = HAL_GetTick();
 806:Drivers/STM32F0xx_HAL_Driver/Src/stm32f0xx_hal_rcc.c ****     
 807:Drivers/STM32F0xx_HAL_Driver/Src/stm32f0xx_hal_rcc.c ****     if(RCC_ClkInitStruct->SYSCLKSource == RCC_SYSCLKSOURCE_HSE)
 808:Drivers/STM32F0xx_HAL_Driver/Src/stm32f0xx_hal_rcc.c ****     {
 809:Drivers/STM32F0xx_HAL_Driver/Src/stm32f0xx_hal_rcc.c ****       while (__HAL_RCC_GET_SYSCLK_SOURCE() != RCC_SYSCLKSOURCE_STATUS_HSE)
 810:Drivers/STM32F0xx_HAL_Driver/Src/stm32f0xx_hal_rcc.c ****       {
 811:Drivers/STM32F0xx_HAL_Driver/Src/stm32f0xx_hal_rcc.c ****         if((HAL_GetTick() - tickstart ) > CLOCKSWITCH_TIMEOUT_VALUE)
 812:Drivers/STM32F0xx_HAL_Driver/Src/stm32f0xx_hal_rcc.c ****         {
 813:Drivers/STM32F0xx_HAL_Driver/Src/stm32f0xx_hal_rcc.c ****           return HAL_TIMEOUT;
 814:Drivers/STM32F0xx_HAL_Driver/Src/stm32f0xx_hal_rcc.c ****         }
 815:Drivers/STM32F0xx_HAL_Driver/Src/stm32f0xx_hal_rcc.c ****       }
 816:Drivers/STM32F0xx_HAL_Driver/Src/stm32f0xx_hal_rcc.c ****     }
 817:Drivers/STM32F0xx_HAL_Driver/Src/stm32f0xx_hal_rcc.c ****     else if(RCC_ClkInitStruct->SYSCLKSource == RCC_SYSCLKSOURCE_PLLCLK)
 818:Drivers/STM32F0xx_HAL_Driver/Src/stm32f0xx_hal_rcc.c ****     {
 819:Drivers/STM32F0xx_HAL_Driver/Src/stm32f0xx_hal_rcc.c ****       while (__HAL_RCC_GET_SYSCLK_SOURCE() != RCC_SYSCLKSOURCE_STATUS_PLLCLK)
 820:Drivers/STM32F0xx_HAL_Driver/Src/stm32f0xx_hal_rcc.c ****       {
 821:Drivers/STM32F0xx_HAL_Driver/Src/stm32f0xx_hal_rcc.c ****         if((HAL_GetTick() - tickstart ) > CLOCKSWITCH_TIMEOUT_VALUE)
 822:Drivers/STM32F0xx_HAL_Driver/Src/stm32f0xx_hal_rcc.c ****         {
 823:Drivers/STM32F0xx_HAL_Driver/Src/stm32f0xx_hal_rcc.c ****           return HAL_TIMEOUT;
 824:Drivers/STM32F0xx_HAL_Driver/Src/stm32f0xx_hal_rcc.c ****         }
 825:Drivers/STM32F0xx_HAL_Driver/Src/stm32f0xx_hal_rcc.c ****       }
 826:Drivers/STM32F0xx_HAL_Driver/Src/stm32f0xx_hal_rcc.c ****     }
 827:Drivers/STM32F0xx_HAL_Driver/Src/stm32f0xx_hal_rcc.c **** #if defined(RCC_CFGR_SWS_HSI48)
 828:Drivers/STM32F0xx_HAL_Driver/Src/stm32f0xx_hal_rcc.c ****     else if(RCC_ClkInitStruct->SYSCLKSource == RCC_SYSCLKSOURCE_HSI48)
 829:Drivers/STM32F0xx_HAL_Driver/Src/stm32f0xx_hal_rcc.c ****     {
 830:Drivers/STM32F0xx_HAL_Driver/Src/stm32f0xx_hal_rcc.c ****       while (__HAL_RCC_GET_SYSCLK_SOURCE() != RCC_SYSCLKSOURCE_STATUS_HSI48)
 831:Drivers/STM32F0xx_HAL_Driver/Src/stm32f0xx_hal_rcc.c ****       {
 832:Drivers/STM32F0xx_HAL_Driver/Src/stm32f0xx_hal_rcc.c ****         if((HAL_GetTick() - tickstart) > CLOCKSWITCH_TIMEOUT_VALUE)
 833:Drivers/STM32F0xx_HAL_Driver/Src/stm32f0xx_hal_rcc.c ****         {
 834:Drivers/STM32F0xx_HAL_Driver/Src/stm32f0xx_hal_rcc.c ****           return HAL_TIMEOUT;
 835:Drivers/STM32F0xx_HAL_Driver/Src/stm32f0xx_hal_rcc.c ****         }
 836:Drivers/STM32F0xx_HAL_Driver/Src/stm32f0xx_hal_rcc.c ****       }
 837:Drivers/STM32F0xx_HAL_Driver/Src/stm32f0xx_hal_rcc.c ****     }
 838:Drivers/STM32F0xx_HAL_Driver/Src/stm32f0xx_hal_rcc.c **** #endif /* RCC_CFGR_SWS_HSI48 */
 839:Drivers/STM32F0xx_HAL_Driver/Src/stm32f0xx_hal_rcc.c ****     else
 840:Drivers/STM32F0xx_HAL_Driver/Src/stm32f0xx_hal_rcc.c ****     {
 841:Drivers/STM32F0xx_HAL_Driver/Src/stm32f0xx_hal_rcc.c ****       while (__HAL_RCC_GET_SYSCLK_SOURCE() != RCC_SYSCLKSOURCE_STATUS_HSI)
 842:Drivers/STM32F0xx_HAL_Driver/Src/stm32f0xx_hal_rcc.c ****       {
 843:Drivers/STM32F0xx_HAL_Driver/Src/stm32f0xx_hal_rcc.c ****         if((HAL_GetTick() - tickstart ) > CLOCKSWITCH_TIMEOUT_VALUE)
 844:Drivers/STM32F0xx_HAL_Driver/Src/stm32f0xx_hal_rcc.c ****         {
 845:Drivers/STM32F0xx_HAL_Driver/Src/stm32f0xx_hal_rcc.c ****           return HAL_TIMEOUT;
 846:Drivers/STM32F0xx_HAL_Driver/Src/stm32f0xx_hal_rcc.c ****         }
ARM GAS  C:\Users\0.0\AppData\Local\Temp\cceJoyYc.s 			page 40


 847:Drivers/STM32F0xx_HAL_Driver/Src/stm32f0xx_hal_rcc.c ****       }
 848:Drivers/STM32F0xx_HAL_Driver/Src/stm32f0xx_hal_rcc.c ****     }      
 849:Drivers/STM32F0xx_HAL_Driver/Src/stm32f0xx_hal_rcc.c ****   }    
 850:Drivers/STM32F0xx_HAL_Driver/Src/stm32f0xx_hal_rcc.c ****   /* Decreasing the number of wait states because of lower CPU frequency */
 851:Drivers/STM32F0xx_HAL_Driver/Src/stm32f0xx_hal_rcc.c ****   if(FLatency < (FLASH->ACR & FLASH_ACR_LATENCY))
 852:Drivers/STM32F0xx_HAL_Driver/Src/stm32f0xx_hal_rcc.c ****   {    
 853:Drivers/STM32F0xx_HAL_Driver/Src/stm32f0xx_hal_rcc.c ****     /* Program the new number of wait states to the LATENCY bits in the FLASH_ACR register */
 854:Drivers/STM32F0xx_HAL_Driver/Src/stm32f0xx_hal_rcc.c ****     __HAL_FLASH_SET_LATENCY(FLatency);
 855:Drivers/STM32F0xx_HAL_Driver/Src/stm32f0xx_hal_rcc.c ****     
 856:Drivers/STM32F0xx_HAL_Driver/Src/stm32f0xx_hal_rcc.c ****     /* Check that the new number of wait states is taken into account to access the Flash
 857:Drivers/STM32F0xx_HAL_Driver/Src/stm32f0xx_hal_rcc.c ****     memory by reading the FLASH_ACR register */
 858:Drivers/STM32F0xx_HAL_Driver/Src/stm32f0xx_hal_rcc.c ****     if((FLASH->ACR & FLASH_ACR_LATENCY) != FLatency)
 859:Drivers/STM32F0xx_HAL_Driver/Src/stm32f0xx_hal_rcc.c ****     {
 860:Drivers/STM32F0xx_HAL_Driver/Src/stm32f0xx_hal_rcc.c ****       return HAL_ERROR;
 861:Drivers/STM32F0xx_HAL_Driver/Src/stm32f0xx_hal_rcc.c ****     }
 862:Drivers/STM32F0xx_HAL_Driver/Src/stm32f0xx_hal_rcc.c ****   }    
 863:Drivers/STM32F0xx_HAL_Driver/Src/stm32f0xx_hal_rcc.c **** 
 864:Drivers/STM32F0xx_HAL_Driver/Src/stm32f0xx_hal_rcc.c ****   /*-------------------------- PCLK1 Configuration ---------------------------*/ 
 865:Drivers/STM32F0xx_HAL_Driver/Src/stm32f0xx_hal_rcc.c ****   if(((RCC_ClkInitStruct->ClockType) & RCC_CLOCKTYPE_PCLK1) == RCC_CLOCKTYPE_PCLK1)
 866:Drivers/STM32F0xx_HAL_Driver/Src/stm32f0xx_hal_rcc.c ****   {
 867:Drivers/STM32F0xx_HAL_Driver/Src/stm32f0xx_hal_rcc.c ****     assert_param(IS_RCC_PCLK(RCC_ClkInitStruct->APB1CLKDivider));
 868:Drivers/STM32F0xx_HAL_Driver/Src/stm32f0xx_hal_rcc.c ****     MODIFY_REG(RCC->CFGR, RCC_CFGR_PPRE, RCC_ClkInitStruct->APB1CLKDivider);
 869:Drivers/STM32F0xx_HAL_Driver/Src/stm32f0xx_hal_rcc.c ****   }
 870:Drivers/STM32F0xx_HAL_Driver/Src/stm32f0xx_hal_rcc.c ****   
 871:Drivers/STM32F0xx_HAL_Driver/Src/stm32f0xx_hal_rcc.c ****   /* Update the SystemCoreClock global variable */
 872:Drivers/STM32F0xx_HAL_Driver/Src/stm32f0xx_hal_rcc.c ****   SystemCoreClock = HAL_RCC_GetSysClockFreq() >> AHBPrescTable[(RCC->CFGR & RCC_CFGR_HPRE)>> RCC_CF
 873:Drivers/STM32F0xx_HAL_Driver/Src/stm32f0xx_hal_rcc.c **** 
 874:Drivers/STM32F0xx_HAL_Driver/Src/stm32f0xx_hal_rcc.c ****   /* Configure the source of time base considering new system clocks settings*/
 875:Drivers/STM32F0xx_HAL_Driver/Src/stm32f0xx_hal_rcc.c ****   HAL_InitTick (TICK_INT_PRIORITY);
 876:Drivers/STM32F0xx_HAL_Driver/Src/stm32f0xx_hal_rcc.c ****   
 877:Drivers/STM32F0xx_HAL_Driver/Src/stm32f0xx_hal_rcc.c ****   return HAL_OK;
 878:Drivers/STM32F0xx_HAL_Driver/Src/stm32f0xx_hal_rcc.c **** }
 879:Drivers/STM32F0xx_HAL_Driver/Src/stm32f0xx_hal_rcc.c **** 
 880:Drivers/STM32F0xx_HAL_Driver/Src/stm32f0xx_hal_rcc.c **** /**
 881:Drivers/STM32F0xx_HAL_Driver/Src/stm32f0xx_hal_rcc.c ****   * @}
 882:Drivers/STM32F0xx_HAL_Driver/Src/stm32f0xx_hal_rcc.c ****   */
 883:Drivers/STM32F0xx_HAL_Driver/Src/stm32f0xx_hal_rcc.c **** 
 884:Drivers/STM32F0xx_HAL_Driver/Src/stm32f0xx_hal_rcc.c **** /** @defgroup RCC_Exported_Functions_Group2 Peripheral Control functions
 885:Drivers/STM32F0xx_HAL_Driver/Src/stm32f0xx_hal_rcc.c ****   *  @brief   RCC clocks control functions
 886:Drivers/STM32F0xx_HAL_Driver/Src/stm32f0xx_hal_rcc.c ****   *
 887:Drivers/STM32F0xx_HAL_Driver/Src/stm32f0xx_hal_rcc.c ****   @verbatim   
 888:Drivers/STM32F0xx_HAL_Driver/Src/stm32f0xx_hal_rcc.c ****   ===============================================================================
 889:Drivers/STM32F0xx_HAL_Driver/Src/stm32f0xx_hal_rcc.c ****                   ##### Peripheral Control functions #####
 890:Drivers/STM32F0xx_HAL_Driver/Src/stm32f0xx_hal_rcc.c ****   ===============================================================================  
 891:Drivers/STM32F0xx_HAL_Driver/Src/stm32f0xx_hal_rcc.c ****     [..]
 892:Drivers/STM32F0xx_HAL_Driver/Src/stm32f0xx_hal_rcc.c ****     This subsection provides a set of functions allowing to control the RCC Clocks 
 893:Drivers/STM32F0xx_HAL_Driver/Src/stm32f0xx_hal_rcc.c ****     frequencies.
 894:Drivers/STM32F0xx_HAL_Driver/Src/stm32f0xx_hal_rcc.c **** 
 895:Drivers/STM32F0xx_HAL_Driver/Src/stm32f0xx_hal_rcc.c ****   @endverbatim
 896:Drivers/STM32F0xx_HAL_Driver/Src/stm32f0xx_hal_rcc.c ****   * @{
 897:Drivers/STM32F0xx_HAL_Driver/Src/stm32f0xx_hal_rcc.c ****   */
 898:Drivers/STM32F0xx_HAL_Driver/Src/stm32f0xx_hal_rcc.c **** 
 899:Drivers/STM32F0xx_HAL_Driver/Src/stm32f0xx_hal_rcc.c **** #if defined(RCC_CFGR_MCOPRE)
 900:Drivers/STM32F0xx_HAL_Driver/Src/stm32f0xx_hal_rcc.c **** /**
 901:Drivers/STM32F0xx_HAL_Driver/Src/stm32f0xx_hal_rcc.c ****   * @brief  Selects the clock source to output on MCO pin.
 902:Drivers/STM32F0xx_HAL_Driver/Src/stm32f0xx_hal_rcc.c ****   * @note   MCO pin should be configured in alternate function mode.
 903:Drivers/STM32F0xx_HAL_Driver/Src/stm32f0xx_hal_rcc.c ****   * @param  RCC_MCOx specifies the output direction for the clock source.
ARM GAS  C:\Users\0.0\AppData\Local\Temp\cceJoyYc.s 			page 41


 904:Drivers/STM32F0xx_HAL_Driver/Src/stm32f0xx_hal_rcc.c ****   *          This parameter can be one of the following values:
 905:Drivers/STM32F0xx_HAL_Driver/Src/stm32f0xx_hal_rcc.c ****   *            @arg @ref RCC_MCO1 Clock source to output on MCO1 pin(PA8).
 906:Drivers/STM32F0xx_HAL_Driver/Src/stm32f0xx_hal_rcc.c ****   * @param  RCC_MCOSource specifies the clock source to output.
 907:Drivers/STM32F0xx_HAL_Driver/Src/stm32f0xx_hal_rcc.c ****   *          This parameter can be one of the following values:
 908:Drivers/STM32F0xx_HAL_Driver/Src/stm32f0xx_hal_rcc.c ****   *            @arg @ref RCC_MCO1SOURCE_NOCLOCK     No clock selected
 909:Drivers/STM32F0xx_HAL_Driver/Src/stm32f0xx_hal_rcc.c ****   *            @arg @ref RCC_MCO1SOURCE_SYSCLK      System Clock selected as MCO clock
 910:Drivers/STM32F0xx_HAL_Driver/Src/stm32f0xx_hal_rcc.c ****   *            @arg @ref RCC_MCO1SOURCE_HSI         HSI selected as MCO clock
 911:Drivers/STM32F0xx_HAL_Driver/Src/stm32f0xx_hal_rcc.c ****   *            @arg @ref RCC_MCO1SOURCE_HSE         HSE selected as MCO clock
 912:Drivers/STM32F0xx_HAL_Driver/Src/stm32f0xx_hal_rcc.c ****   *            @arg @ref RCC_MCO1SOURCE_LSI         LSI selected as MCO clock
 913:Drivers/STM32F0xx_HAL_Driver/Src/stm32f0xx_hal_rcc.c ****   *            @arg @ref RCC_MCO1SOURCE_LSE         LSE selected as MCO clock
 914:Drivers/STM32F0xx_HAL_Driver/Src/stm32f0xx_hal_rcc.c ****   *            @arg @ref RCC_MCO1SOURCE_HSI14       HSI14 selected as MCO clock
 915:Drivers/STM32F0xx_HAL_Driver/Src/stm32f0xx_hal_rcc.c ****   @if STM32F042x6
 916:Drivers/STM32F0xx_HAL_Driver/Src/stm32f0xx_hal_rcc.c ****   *            @arg @ref RCC_MCO1SOURCE_HSI48       HSI48 selected as MCO clock
 917:Drivers/STM32F0xx_HAL_Driver/Src/stm32f0xx_hal_rcc.c ****   *            @arg @ref RCC_MCO1SOURCE_PLLCLK      PLLCLK selected as MCO clock
 918:Drivers/STM32F0xx_HAL_Driver/Src/stm32f0xx_hal_rcc.c ****   @elseif STM32F048xx
 919:Drivers/STM32F0xx_HAL_Driver/Src/stm32f0xx_hal_rcc.c ****   *            @arg @ref RCC_MCO1SOURCE_HSI48       HSI48 selected as MCO clock
 920:Drivers/STM32F0xx_HAL_Driver/Src/stm32f0xx_hal_rcc.c ****   *            @arg @ref RCC_MCO1SOURCE_PLLCLK      PLLCLK selected as MCO clock
 921:Drivers/STM32F0xx_HAL_Driver/Src/stm32f0xx_hal_rcc.c ****   @elseif STM32F071xB
 922:Drivers/STM32F0xx_HAL_Driver/Src/stm32f0xx_hal_rcc.c ****   *            @arg @ref RCC_MCO1SOURCE_HSI48       HSI48 selected as MCO clock
 923:Drivers/STM32F0xx_HAL_Driver/Src/stm32f0xx_hal_rcc.c ****   *            @arg @ref RCC_MCO1SOURCE_PLLCLK      PLLCLK selected as MCO clock
 924:Drivers/STM32F0xx_HAL_Driver/Src/stm32f0xx_hal_rcc.c ****   @elseif STM32F072xB
 925:Drivers/STM32F0xx_HAL_Driver/Src/stm32f0xx_hal_rcc.c ****   *            @arg @ref RCC_MCO1SOURCE_HSI48       HSI48 selected as MCO clock
 926:Drivers/STM32F0xx_HAL_Driver/Src/stm32f0xx_hal_rcc.c ****   *            @arg @ref RCC_MCO1SOURCE_PLLCLK      PLLCLK selected as MCO clock
 927:Drivers/STM32F0xx_HAL_Driver/Src/stm32f0xx_hal_rcc.c ****   @elseif STM32F078xx
 928:Drivers/STM32F0xx_HAL_Driver/Src/stm32f0xx_hal_rcc.c ****   *            @arg @ref RCC_MCO1SOURCE_HSI48       HSI48 selected as MCO clock
 929:Drivers/STM32F0xx_HAL_Driver/Src/stm32f0xx_hal_rcc.c ****   *            @arg @ref RCC_MCO1SOURCE_PLLCLK      PLLCLK selected as MCO clock
 930:Drivers/STM32F0xx_HAL_Driver/Src/stm32f0xx_hal_rcc.c ****   @elseif STM32F091xC
 931:Drivers/STM32F0xx_HAL_Driver/Src/stm32f0xx_hal_rcc.c ****   *            @arg @ref RCC_MCO1SOURCE_HSI48       HSI48 selected as MCO clock
 932:Drivers/STM32F0xx_HAL_Driver/Src/stm32f0xx_hal_rcc.c ****   *            @arg @ref RCC_MCO1SOURCE_PLLCLK      PLLCLK selected as MCO clock
 933:Drivers/STM32F0xx_HAL_Driver/Src/stm32f0xx_hal_rcc.c ****   @elseif STM32F098xx
 934:Drivers/STM32F0xx_HAL_Driver/Src/stm32f0xx_hal_rcc.c ****   *            @arg @ref RCC_MCO1SOURCE_HSI48       HSI48 selected as MCO clock
 935:Drivers/STM32F0xx_HAL_Driver/Src/stm32f0xx_hal_rcc.c ****   *            @arg @ref RCC_MCO1SOURCE_PLLCLK      PLLCLK selected as MCO clock
 936:Drivers/STM32F0xx_HAL_Driver/Src/stm32f0xx_hal_rcc.c ****   @elif STM32F030x6
 937:Drivers/STM32F0xx_HAL_Driver/Src/stm32f0xx_hal_rcc.c ****   *            @arg @ref RCC_MCO1SOURCE_PLLCLK      PLLCLK selected as MCO clock
 938:Drivers/STM32F0xx_HAL_Driver/Src/stm32f0xx_hal_rcc.c ****   @elif STM32F030xC
 939:Drivers/STM32F0xx_HAL_Driver/Src/stm32f0xx_hal_rcc.c ****   *            @arg @ref RCC_MCO1SOURCE_PLLCLK      PLLCLK selected as MCO clock
 940:Drivers/STM32F0xx_HAL_Driver/Src/stm32f0xx_hal_rcc.c ****   @elif STM32F031x6
 941:Drivers/STM32F0xx_HAL_Driver/Src/stm32f0xx_hal_rcc.c ****   *            @arg @ref RCC_MCO1SOURCE_PLLCLK      PLLCLK selected as MCO clock
 942:Drivers/STM32F0xx_HAL_Driver/Src/stm32f0xx_hal_rcc.c ****   @elif STM32F038xx
 943:Drivers/STM32F0xx_HAL_Driver/Src/stm32f0xx_hal_rcc.c ****   *            @arg @ref RCC_MCO1SOURCE_PLLCLK      PLLCLK selected as MCO clock
 944:Drivers/STM32F0xx_HAL_Driver/Src/stm32f0xx_hal_rcc.c ****   @elif STM32F070x6
 945:Drivers/STM32F0xx_HAL_Driver/Src/stm32f0xx_hal_rcc.c ****   *            @arg @ref RCC_MCO1SOURCE_PLLCLK      PLLCLK selected as MCO clock
 946:Drivers/STM32F0xx_HAL_Driver/Src/stm32f0xx_hal_rcc.c ****   @elif STM32F070xB
 947:Drivers/STM32F0xx_HAL_Driver/Src/stm32f0xx_hal_rcc.c ****   *            @arg @ref RCC_MCO1SOURCE_PLLCLK      PLLCLK selected as MCO clock
 948:Drivers/STM32F0xx_HAL_Driver/Src/stm32f0xx_hal_rcc.c ****   @endif
 949:Drivers/STM32F0xx_HAL_Driver/Src/stm32f0xx_hal_rcc.c ****   *            @arg @ref RCC_MCO1SOURCE_PLLCLK_DIV2 PLLCLK Divided by 2 selected as MCO clock
 950:Drivers/STM32F0xx_HAL_Driver/Src/stm32f0xx_hal_rcc.c ****   * @param  RCC_MCODiv specifies the MCO DIV.
 951:Drivers/STM32F0xx_HAL_Driver/Src/stm32f0xx_hal_rcc.c ****   *          This parameter can be one of the following values:
 952:Drivers/STM32F0xx_HAL_Driver/Src/stm32f0xx_hal_rcc.c ****   *            @arg @ref RCC_MCODIV_1   no division applied to MCO clock
 953:Drivers/STM32F0xx_HAL_Driver/Src/stm32f0xx_hal_rcc.c ****   *            @arg @ref RCC_MCODIV_2   division by 2 applied to MCO clock
 954:Drivers/STM32F0xx_HAL_Driver/Src/stm32f0xx_hal_rcc.c ****   *            @arg @ref RCC_MCODIV_4   division by 4 applied to MCO clock
 955:Drivers/STM32F0xx_HAL_Driver/Src/stm32f0xx_hal_rcc.c ****   *            @arg @ref RCC_MCODIV_8   division by 8 applied to MCO clock
 956:Drivers/STM32F0xx_HAL_Driver/Src/stm32f0xx_hal_rcc.c ****   *            @arg @ref RCC_MCODIV_16  division by 16 applied to MCO clock
 957:Drivers/STM32F0xx_HAL_Driver/Src/stm32f0xx_hal_rcc.c ****   *            @arg @ref RCC_MCODIV_32  division by 32 applied to MCO clock
 958:Drivers/STM32F0xx_HAL_Driver/Src/stm32f0xx_hal_rcc.c ****   *            @arg @ref RCC_MCODIV_64  division by 64 applied to MCO clock
 959:Drivers/STM32F0xx_HAL_Driver/Src/stm32f0xx_hal_rcc.c ****   *            @arg @ref RCC_MCODIV_128 division by 128 applied to MCO clock
 960:Drivers/STM32F0xx_HAL_Driver/Src/stm32f0xx_hal_rcc.c ****   * @retval None
ARM GAS  C:\Users\0.0\AppData\Local\Temp\cceJoyYc.s 			page 42


 961:Drivers/STM32F0xx_HAL_Driver/Src/stm32f0xx_hal_rcc.c ****   */
 962:Drivers/STM32F0xx_HAL_Driver/Src/stm32f0xx_hal_rcc.c **** #else
 963:Drivers/STM32F0xx_HAL_Driver/Src/stm32f0xx_hal_rcc.c **** /**
 964:Drivers/STM32F0xx_HAL_Driver/Src/stm32f0xx_hal_rcc.c ****   * @brief  Selects the clock source to output on MCO pin.
 965:Drivers/STM32F0xx_HAL_Driver/Src/stm32f0xx_hal_rcc.c ****   * @note   MCO pin should be configured in alternate function mode.
 966:Drivers/STM32F0xx_HAL_Driver/Src/stm32f0xx_hal_rcc.c ****   * @param  RCC_MCOx specifies the output direction for the clock source.
 967:Drivers/STM32F0xx_HAL_Driver/Src/stm32f0xx_hal_rcc.c ****   *          This parameter can be one of the following values:
 968:Drivers/STM32F0xx_HAL_Driver/Src/stm32f0xx_hal_rcc.c ****   *            @arg @ref RCC_MCO1 Clock source to output on MCO1 pin(PA8).
 969:Drivers/STM32F0xx_HAL_Driver/Src/stm32f0xx_hal_rcc.c ****   * @param  RCC_MCOSource specifies the clock source to output.
 970:Drivers/STM32F0xx_HAL_Driver/Src/stm32f0xx_hal_rcc.c ****   *          This parameter can be one of the following values:
 971:Drivers/STM32F0xx_HAL_Driver/Src/stm32f0xx_hal_rcc.c ****   *            @arg @ref RCC_MCO1SOURCE_NOCLOCK     No clock selected as MCO clock
 972:Drivers/STM32F0xx_HAL_Driver/Src/stm32f0xx_hal_rcc.c ****   *            @arg @ref RCC_MCO1SOURCE_SYSCLK      System clock selected as MCO clock
 973:Drivers/STM32F0xx_HAL_Driver/Src/stm32f0xx_hal_rcc.c ****   *            @arg @ref RCC_MCO1SOURCE_HSI         HSI selected as MCO clock
 974:Drivers/STM32F0xx_HAL_Driver/Src/stm32f0xx_hal_rcc.c ****   *            @arg @ref RCC_MCO1SOURCE_HSE         HSE selected as MCO clock
 975:Drivers/STM32F0xx_HAL_Driver/Src/stm32f0xx_hal_rcc.c ****   *            @arg @ref RCC_MCO1SOURCE_LSI         LSI selected as MCO clock
 976:Drivers/STM32F0xx_HAL_Driver/Src/stm32f0xx_hal_rcc.c ****   *            @arg @ref RCC_MCO1SOURCE_LSE         LSE selected as MCO clock
 977:Drivers/STM32F0xx_HAL_Driver/Src/stm32f0xx_hal_rcc.c ****   *            @arg @ref RCC_MCO1SOURCE_HSI14       HSI14 selected as MCO clock
 978:Drivers/STM32F0xx_HAL_Driver/Src/stm32f0xx_hal_rcc.c ****   *            @arg @ref RCC_MCO1SOURCE_PLLCLK_DIV2 PLLCLK Divided by 2 selected as MCO clock
 979:Drivers/STM32F0xx_HAL_Driver/Src/stm32f0xx_hal_rcc.c ****   * @param  RCC_MCODiv specifies the MCO DIV.
 980:Drivers/STM32F0xx_HAL_Driver/Src/stm32f0xx_hal_rcc.c ****   *          This parameter can be one of the following values:
 981:Drivers/STM32F0xx_HAL_Driver/Src/stm32f0xx_hal_rcc.c ****   *            @arg @ref RCC_MCODIV_1 no division applied to MCO clock
 982:Drivers/STM32F0xx_HAL_Driver/Src/stm32f0xx_hal_rcc.c ****   * @retval None
 983:Drivers/STM32F0xx_HAL_Driver/Src/stm32f0xx_hal_rcc.c ****   */
 984:Drivers/STM32F0xx_HAL_Driver/Src/stm32f0xx_hal_rcc.c **** #endif
 985:Drivers/STM32F0xx_HAL_Driver/Src/stm32f0xx_hal_rcc.c **** void HAL_RCC_MCOConfig(uint32_t RCC_MCOx, uint32_t RCC_MCOSource, uint32_t RCC_MCODiv)
 986:Drivers/STM32F0xx_HAL_Driver/Src/stm32f0xx_hal_rcc.c **** {
 1220              		.loc 1 986 1 is_stmt 1 view -0
 1221              		.cfi_startproc
 1222              		@ args = 0, pretend = 0, frame = 24
 1223              		@ frame_needed = 0, uses_anonymous_args = 0
 1224              		.loc 1 986 1 is_stmt 0 view .LVU365
 1225 0000 70B5     		push	{r4, r5, r6, lr}
 1226              	.LCFI2:
 1227              		.cfi_def_cfa_offset 16
 1228              		.cfi_offset 4, -16
 1229              		.cfi_offset 5, -12
 1230              		.cfi_offset 6, -8
 1231              		.cfi_offset 14, -4
 1232 0002 86B0     		sub	sp, sp, #24
 1233              	.LCFI3:
 1234              		.cfi_def_cfa_offset 40
 1235 0004 0D00     		movs	r5, r1
 1236 0006 1600     		movs	r6, r2
 987:Drivers/STM32F0xx_HAL_Driver/Src/stm32f0xx_hal_rcc.c ****   GPIO_InitTypeDef gpio;
 1237              		.loc 1 987 3 is_stmt 1 view .LVU366
 988:Drivers/STM32F0xx_HAL_Driver/Src/stm32f0xx_hal_rcc.c **** 
 989:Drivers/STM32F0xx_HAL_Driver/Src/stm32f0xx_hal_rcc.c ****   /* Check the parameters */
 990:Drivers/STM32F0xx_HAL_Driver/Src/stm32f0xx_hal_rcc.c ****   assert_param(IS_RCC_MCO(RCC_MCOx));
 1238              		.loc 1 990 3 view .LVU367
 991:Drivers/STM32F0xx_HAL_Driver/Src/stm32f0xx_hal_rcc.c ****   assert_param(IS_RCC_MCODIV(RCC_MCODiv));
 1239              		.loc 1 991 3 view .LVU368
 992:Drivers/STM32F0xx_HAL_Driver/Src/stm32f0xx_hal_rcc.c ****   assert_param(IS_RCC_MCO1SOURCE(RCC_MCOSource));
 1240              		.loc 1 992 3 view .LVU369
 993:Drivers/STM32F0xx_HAL_Driver/Src/stm32f0xx_hal_rcc.c ****   
 994:Drivers/STM32F0xx_HAL_Driver/Src/stm32f0xx_hal_rcc.c ****   /* Configure the MCO1 pin in alternate function mode */
 995:Drivers/STM32F0xx_HAL_Driver/Src/stm32f0xx_hal_rcc.c ****   gpio.Mode      = GPIO_MODE_AF_PP;
 1241              		.loc 1 995 3 view .LVU370
ARM GAS  C:\Users\0.0\AppData\Local\Temp\cceJoyYc.s 			page 43


 1242              		.loc 1 995 18 is_stmt 0 view .LVU371
 1243 0008 0223     		movs	r3, #2
 1244 000a 0293     		str	r3, [sp, #8]
 996:Drivers/STM32F0xx_HAL_Driver/Src/stm32f0xx_hal_rcc.c ****   gpio.Speed     = GPIO_SPEED_FREQ_HIGH;
 1245              		.loc 1 996 3 is_stmt 1 view .LVU372
 1246              		.loc 1 996 18 is_stmt 0 view .LVU373
 1247 000c 0133     		adds	r3, r3, #1
 1248 000e 0493     		str	r3, [sp, #16]
 997:Drivers/STM32F0xx_HAL_Driver/Src/stm32f0xx_hal_rcc.c ****   gpio.Pull      = GPIO_NOPULL;
 1249              		.loc 1 997 3 is_stmt 1 view .LVU374
 1250              		.loc 1 997 18 is_stmt 0 view .LVU375
 1251 0010 0023     		movs	r3, #0
 1252 0012 0393     		str	r3, [sp, #12]
 998:Drivers/STM32F0xx_HAL_Driver/Src/stm32f0xx_hal_rcc.c ****   gpio.Pin       = MCO1_PIN;
 1253              		.loc 1 998 3 is_stmt 1 view .LVU376
 1254              		.loc 1 998 18 is_stmt 0 view .LVU377
 1255 0014 8022     		movs	r2, #128
 1256              	.LVL77:
 1257              		.loc 1 998 18 view .LVU378
 1258 0016 5200     		lsls	r2, r2, #1
 1259 0018 0192     		str	r2, [sp, #4]
 999:Drivers/STM32F0xx_HAL_Driver/Src/stm32f0xx_hal_rcc.c ****   gpio.Alternate = GPIO_AF0_MCO;
 1260              		.loc 1 999 3 is_stmt 1 view .LVU379
 1261              		.loc 1 999 18 is_stmt 0 view .LVU380
 1262 001a 0593     		str	r3, [sp, #20]
1000:Drivers/STM32F0xx_HAL_Driver/Src/stm32f0xx_hal_rcc.c **** 
1001:Drivers/STM32F0xx_HAL_Driver/Src/stm32f0xx_hal_rcc.c ****   /* MCO1 Clock Enable */
1002:Drivers/STM32F0xx_HAL_Driver/Src/stm32f0xx_hal_rcc.c ****   MCO1_CLK_ENABLE();
 1263              		.loc 1 1002 3 is_stmt 1 view .LVU381
 1264              	.LBB5:
 1265              		.loc 1 1002 3 view .LVU382
 1266              		.loc 1 1002 3 view .LVU383
 1267 001c 0B4C     		ldr	r4, .L124
 1268 001e 6369     		ldr	r3, [r4, #20]
 1269 0020 8022     		movs	r2, #128
 1270 0022 9202     		lsls	r2, r2, #10
 1271 0024 1343     		orrs	r3, r2
 1272 0026 6361     		str	r3, [r4, #20]
 1273              		.loc 1 1002 3 view .LVU384
 1274 0028 6369     		ldr	r3, [r4, #20]
 1275 002a 1340     		ands	r3, r2
 1276 002c 0093     		str	r3, [sp]
 1277              		.loc 1 1002 3 view .LVU385
 1278 002e 009B     		ldr	r3, [sp]
 1279              	.LBE5:
 1280              		.loc 1 1002 3 view .LVU386
1003:Drivers/STM32F0xx_HAL_Driver/Src/stm32f0xx_hal_rcc.c ****   
1004:Drivers/STM32F0xx_HAL_Driver/Src/stm32f0xx_hal_rcc.c ****   HAL_GPIO_Init(MCO1_GPIO_PORT, &gpio);
 1281              		.loc 1 1004 3 view .LVU387
 1282 0030 9020     		movs	r0, #144
 1283              	.LVL78:
 1284              		.loc 1 1004 3 is_stmt 0 view .LVU388
 1285 0032 01A9     		add	r1, sp, #4
 1286              	.LVL79:
 1287              		.loc 1 1004 3 view .LVU389
 1288 0034 C005     		lsls	r0, r0, #23
 1289 0036 FFF7FEFF 		bl	HAL_GPIO_Init
ARM GAS  C:\Users\0.0\AppData\Local\Temp\cceJoyYc.s 			page 44


 1290              	.LVL80:
1005:Drivers/STM32F0xx_HAL_Driver/Src/stm32f0xx_hal_rcc.c ****   
1006:Drivers/STM32F0xx_HAL_Driver/Src/stm32f0xx_hal_rcc.c ****   /* Configure the MCO clock source */
1007:Drivers/STM32F0xx_HAL_Driver/Src/stm32f0xx_hal_rcc.c ****   __HAL_RCC_MCO1_CONFIG(RCC_MCOSource, RCC_MCODiv);
 1291              		.loc 1 1007 3 is_stmt 1 view .LVU390
 1292 003a 6268     		ldr	r2, [r4, #4]
 1293 003c 044B     		ldr	r3, .L124+4
 1294 003e 1A40     		ands	r2, r3
 1295 0040 3543     		orrs	r5, r6
 1296              	.LVL81:
 1297              		.loc 1 1007 3 is_stmt 0 view .LVU391
 1298 0042 2A43     		orrs	r2, r5
 1299 0044 6260     		str	r2, [r4, #4]
1008:Drivers/STM32F0xx_HAL_Driver/Src/stm32f0xx_hal_rcc.c **** }
 1300              		.loc 1 1008 1 view .LVU392
 1301 0046 06B0     		add	sp, sp, #24
 1302              		@ sp needed
 1303              	.LVL82:
 1304              		.loc 1 1008 1 view .LVU393
 1305 0048 70BD     		pop	{r4, r5, r6, pc}
 1306              	.L125:
 1307 004a C046     		.align	2
 1308              	.L124:
 1309 004c 00100240 		.word	1073876992
 1310 0050 FFFFFF80 		.word	-2130706433
 1311              		.cfi_endproc
 1312              	.LFE40:
 1314              		.section	.text.HAL_RCC_EnableCSS,"ax",%progbits
 1315              		.align	1
 1316              		.global	HAL_RCC_EnableCSS
 1317              		.syntax unified
 1318              		.code	16
 1319              		.thumb_func
 1321              	HAL_RCC_EnableCSS:
 1322              	.LFB41:
1009:Drivers/STM32F0xx_HAL_Driver/Src/stm32f0xx_hal_rcc.c **** 
1010:Drivers/STM32F0xx_HAL_Driver/Src/stm32f0xx_hal_rcc.c **** /**
1011:Drivers/STM32F0xx_HAL_Driver/Src/stm32f0xx_hal_rcc.c ****   * @brief  Enables the Clock Security System.
1012:Drivers/STM32F0xx_HAL_Driver/Src/stm32f0xx_hal_rcc.c ****   * @note   If a failure is detected on the HSE oscillator clock, this oscillator
1013:Drivers/STM32F0xx_HAL_Driver/Src/stm32f0xx_hal_rcc.c ****   *         is automatically disabled and an interrupt is generated to inform the
1014:Drivers/STM32F0xx_HAL_Driver/Src/stm32f0xx_hal_rcc.c ****   *         software about the failure (Clock Security System Interrupt, CSSI),
1015:Drivers/STM32F0xx_HAL_Driver/Src/stm32f0xx_hal_rcc.c ****   *         allowing the MCU to perform rescue operations. The CSSI is linked to 
1016:Drivers/STM32F0xx_HAL_Driver/Src/stm32f0xx_hal_rcc.c ****   *         the Cortex-M0 NMI (Non-Maskable Interrupt) exception vector.  
1017:Drivers/STM32F0xx_HAL_Driver/Src/stm32f0xx_hal_rcc.c ****   * @retval None
1018:Drivers/STM32F0xx_HAL_Driver/Src/stm32f0xx_hal_rcc.c ****   */
1019:Drivers/STM32F0xx_HAL_Driver/Src/stm32f0xx_hal_rcc.c **** void HAL_RCC_EnableCSS(void)
1020:Drivers/STM32F0xx_HAL_Driver/Src/stm32f0xx_hal_rcc.c **** {
 1323              		.loc 1 1020 1 is_stmt 1 view -0
 1324              		.cfi_startproc
 1325              		@ args = 0, pretend = 0, frame = 0
 1326              		@ frame_needed = 0, uses_anonymous_args = 0
 1327              		@ link register save eliminated.
1021:Drivers/STM32F0xx_HAL_Driver/Src/stm32f0xx_hal_rcc.c ****   SET_BIT(RCC->CR, RCC_CR_CSSON) ;
 1328              		.loc 1 1021 3 view .LVU395
 1329 0000 034A     		ldr	r2, .L127
 1330 0002 1168     		ldr	r1, [r2]
 1331 0004 8023     		movs	r3, #128
ARM GAS  C:\Users\0.0\AppData\Local\Temp\cceJoyYc.s 			page 45


 1332 0006 1B03     		lsls	r3, r3, #12
 1333 0008 0B43     		orrs	r3, r1
 1334 000a 1360     		str	r3, [r2]
1022:Drivers/STM32F0xx_HAL_Driver/Src/stm32f0xx_hal_rcc.c **** }
 1335              		.loc 1 1022 1 is_stmt 0 view .LVU396
 1336              		@ sp needed
 1337 000c 7047     		bx	lr
 1338              	.L128:
 1339 000e C046     		.align	2
 1340              	.L127:
 1341 0010 00100240 		.word	1073876992
 1342              		.cfi_endproc
 1343              	.LFE41:
 1345              		.section	.text.HAL_RCC_DisableCSS,"ax",%progbits
 1346              		.align	1
 1347              		.global	HAL_RCC_DisableCSS
 1348              		.syntax unified
 1349              		.code	16
 1350              		.thumb_func
 1352              	HAL_RCC_DisableCSS:
 1353              	.LFB42:
1023:Drivers/STM32F0xx_HAL_Driver/Src/stm32f0xx_hal_rcc.c **** 
1024:Drivers/STM32F0xx_HAL_Driver/Src/stm32f0xx_hal_rcc.c **** /**
1025:Drivers/STM32F0xx_HAL_Driver/Src/stm32f0xx_hal_rcc.c ****   * @brief  Disables the Clock Security System.
1026:Drivers/STM32F0xx_HAL_Driver/Src/stm32f0xx_hal_rcc.c ****   * @retval None
1027:Drivers/STM32F0xx_HAL_Driver/Src/stm32f0xx_hal_rcc.c ****   */
1028:Drivers/STM32F0xx_HAL_Driver/Src/stm32f0xx_hal_rcc.c **** void HAL_RCC_DisableCSS(void)
1029:Drivers/STM32F0xx_HAL_Driver/Src/stm32f0xx_hal_rcc.c **** {
 1354              		.loc 1 1029 1 is_stmt 1 view -0
 1355              		.cfi_startproc
 1356              		@ args = 0, pretend = 0, frame = 0
 1357              		@ frame_needed = 0, uses_anonymous_args = 0
 1358              		@ link register save eliminated.
1030:Drivers/STM32F0xx_HAL_Driver/Src/stm32f0xx_hal_rcc.c ****   CLEAR_BIT(RCC->CR, RCC_CR_CSSON) ;
 1359              		.loc 1 1030 3 view .LVU398
 1360 0000 024A     		ldr	r2, .L130
 1361 0002 1368     		ldr	r3, [r2]
 1362 0004 0249     		ldr	r1, .L130+4
 1363 0006 0B40     		ands	r3, r1
 1364 0008 1360     		str	r3, [r2]
1031:Drivers/STM32F0xx_HAL_Driver/Src/stm32f0xx_hal_rcc.c **** }
 1365              		.loc 1 1031 1 is_stmt 0 view .LVU399
 1366              		@ sp needed
 1367 000a 7047     		bx	lr
 1368              	.L131:
 1369              		.align	2
 1370              	.L130:
 1371 000c 00100240 		.word	1073876992
 1372 0010 FFFFF7FF 		.word	-524289
 1373              		.cfi_endproc
 1374              	.LFE42:
 1376              		.global	__aeabi_uidiv
 1377              		.section	.rodata.HAL_RCC_GetSysClockFreq.str1.4,"aMS",%progbits,1
 1378              		.align	2
 1379              	.LC1:
 1380 0000 02030405 		.ascii	"\002\003\004\005\006\007\010\011\012\013\014\015\016"
 1380      06070809 
ARM GAS  C:\Users\0.0\AppData\Local\Temp\cceJoyYc.s 			page 46


 1380      0A0B0C0D 
 1380      0E
 1381 000d 0F101000 		.ascii	"\017\020\020\000"
 1382 0011 000000   		.align	2
 1383              	.LC3:
 1384 0014 01020304 		.ascii	"\001\002\003\004\005\006\007\010\011\012\013\014\015"
 1384      05060708 
 1384      090A0B0C 
 1384      0D
 1385 0021 0E0F1000 		.ascii	"\016\017\020\000"
 1386              		.section	.text.HAL_RCC_GetSysClockFreq,"ax",%progbits
 1387              		.align	1
 1388              		.global	HAL_RCC_GetSysClockFreq
 1389              		.syntax unified
 1390              		.code	16
 1391              		.thumb_func
 1393              	HAL_RCC_GetSysClockFreq:
 1394              	.LFB43:
1032:Drivers/STM32F0xx_HAL_Driver/Src/stm32f0xx_hal_rcc.c **** 
1033:Drivers/STM32F0xx_HAL_Driver/Src/stm32f0xx_hal_rcc.c **** /**
1034:Drivers/STM32F0xx_HAL_Driver/Src/stm32f0xx_hal_rcc.c ****   * @brief  Returns the SYSCLK frequency     
1035:Drivers/STM32F0xx_HAL_Driver/Src/stm32f0xx_hal_rcc.c ****   * @note   The system frequency computed by this function is not the real 
1036:Drivers/STM32F0xx_HAL_Driver/Src/stm32f0xx_hal_rcc.c ****   *         frequency in the chip. It is calculated based on the predefined 
1037:Drivers/STM32F0xx_HAL_Driver/Src/stm32f0xx_hal_rcc.c ****   *         constant and the selected clock source:
1038:Drivers/STM32F0xx_HAL_Driver/Src/stm32f0xx_hal_rcc.c ****   * @note     If SYSCLK source is HSI, function returns values based on HSI_VALUE(*)
1039:Drivers/STM32F0xx_HAL_Driver/Src/stm32f0xx_hal_rcc.c ****   * @note     If SYSCLK source is HSE, function returns a value based on HSE_VALUE
1040:Drivers/STM32F0xx_HAL_Driver/Src/stm32f0xx_hal_rcc.c ****   *           divided by PREDIV factor(**)
1041:Drivers/STM32F0xx_HAL_Driver/Src/stm32f0xx_hal_rcc.c ****   * @note     If SYSCLK source is PLL, function returns a value based on HSE_VALUE
1042:Drivers/STM32F0xx_HAL_Driver/Src/stm32f0xx_hal_rcc.c ****   *           divided by PREDIV factor(**) or depending on STM32F0xxxx devices either a value based
1043:Drivers/STM32F0xx_HAL_Driver/Src/stm32f0xx_hal_rcc.c ****   *           on HSI_VALUE divided by 2 or HSI_VALUE divided by PREDIV factor(*) multiplied by the 
1044:Drivers/STM32F0xx_HAL_Driver/Src/stm32f0xx_hal_rcc.c ****   *           PLL factor.
1045:Drivers/STM32F0xx_HAL_Driver/Src/stm32f0xx_hal_rcc.c ****   * @note     (*) HSI_VALUE is a constant defined in stm32f0xx_hal_conf.h file (default value
1046:Drivers/STM32F0xx_HAL_Driver/Src/stm32f0xx_hal_rcc.c ****   *               8 MHz) but the real value may vary depending on the variations
1047:Drivers/STM32F0xx_HAL_Driver/Src/stm32f0xx_hal_rcc.c ****   *               in voltage and temperature.
1048:Drivers/STM32F0xx_HAL_Driver/Src/stm32f0xx_hal_rcc.c ****   * @note     (**) HSE_VALUE is a constant defined in stm32f0xx_hal_conf.h file (default value
1049:Drivers/STM32F0xx_HAL_Driver/Src/stm32f0xx_hal_rcc.c ****   *                8 MHz), user has to ensure that HSE_VALUE is same as the real
1050:Drivers/STM32F0xx_HAL_Driver/Src/stm32f0xx_hal_rcc.c ****   *                frequency of the crystal used. Otherwise, this function may
1051:Drivers/STM32F0xx_HAL_Driver/Src/stm32f0xx_hal_rcc.c ****   *                have wrong result.
1052:Drivers/STM32F0xx_HAL_Driver/Src/stm32f0xx_hal_rcc.c ****   *                  
1053:Drivers/STM32F0xx_HAL_Driver/Src/stm32f0xx_hal_rcc.c ****   * @note   The result of this function could be not correct when using fractional
1054:Drivers/STM32F0xx_HAL_Driver/Src/stm32f0xx_hal_rcc.c ****   *         value for HSE crystal.
1055:Drivers/STM32F0xx_HAL_Driver/Src/stm32f0xx_hal_rcc.c ****   *           
1056:Drivers/STM32F0xx_HAL_Driver/Src/stm32f0xx_hal_rcc.c ****   * @note   This function can be used by the user application to compute the 
1057:Drivers/STM32F0xx_HAL_Driver/Src/stm32f0xx_hal_rcc.c ****   *         baud-rate for the communication peripherals or configure other parameters.
1058:Drivers/STM32F0xx_HAL_Driver/Src/stm32f0xx_hal_rcc.c ****   *           
1059:Drivers/STM32F0xx_HAL_Driver/Src/stm32f0xx_hal_rcc.c ****   * @note   Each time SYSCLK changes, this function must be called to update the
1060:Drivers/STM32F0xx_HAL_Driver/Src/stm32f0xx_hal_rcc.c ****   *         right SYSCLK value. Otherwise, any configuration based on this function will be incorre
1061:Drivers/STM32F0xx_HAL_Driver/Src/stm32f0xx_hal_rcc.c ****   *         
1062:Drivers/STM32F0xx_HAL_Driver/Src/stm32f0xx_hal_rcc.c ****   * @retval SYSCLK frequency
1063:Drivers/STM32F0xx_HAL_Driver/Src/stm32f0xx_hal_rcc.c ****   */
1064:Drivers/STM32F0xx_HAL_Driver/Src/stm32f0xx_hal_rcc.c **** uint32_t HAL_RCC_GetSysClockFreq(void)
1065:Drivers/STM32F0xx_HAL_Driver/Src/stm32f0xx_hal_rcc.c **** {
 1395              		.loc 1 1065 1 is_stmt 1 view -0
 1396              		.cfi_startproc
 1397              		@ args = 0, pretend = 0, frame = 32
 1398              		@ frame_needed = 0, uses_anonymous_args = 0
 1399 0000 30B5     		push	{r4, r5, lr}
ARM GAS  C:\Users\0.0\AppData\Local\Temp\cceJoyYc.s 			page 47


 1400              	.LCFI4:
 1401              		.cfi_def_cfa_offset 12
 1402              		.cfi_offset 4, -12
 1403              		.cfi_offset 5, -8
 1404              		.cfi_offset 14, -4
 1405 0002 89B0     		sub	sp, sp, #36
 1406              	.LCFI5:
 1407              		.cfi_def_cfa_offset 48
1066:Drivers/STM32F0xx_HAL_Driver/Src/stm32f0xx_hal_rcc.c ****   const uint8_t aPLLMULFactorTable[16] = { 2U,  3U,  4U,  5U,  6U,  7U,  8U,  9U,
 1408              		.loc 1 1066 3 view .LVU401
 1409              		.loc 1 1066 17 is_stmt 0 view .LVU402
 1410 0004 04AA     		add	r2, sp, #16
 1411 0006 1E4B     		ldr	r3, .L140
 1412 0008 31CB     		ldmia	r3!, {r0, r4, r5}
 1413 000a 31C2     		stmia	r2!, {r0, r4, r5}
 1414 000c 1B68     		ldr	r3, [r3]
 1415 000e 1360     		str	r3, [r2]
1067:Drivers/STM32F0xx_HAL_Driver/Src/stm32f0xx_hal_rcc.c ****                                          10U, 11U, 12U, 13U, 14U, 15U, 16U, 16U};
1068:Drivers/STM32F0xx_HAL_Driver/Src/stm32f0xx_hal_rcc.c ****   const uint8_t aPredivFactorTable[16] = { 1U, 2U,  3U,  4U,  5U,  6U,  7U,  8U,
 1416              		.loc 1 1068 3 is_stmt 1 view .LVU403
 1417              		.loc 1 1068 17 is_stmt 0 view .LVU404
 1418 0010 6A46     		mov	r2, sp
 1419 0012 1C4B     		ldr	r3, .L140+4
 1420 0014 31CB     		ldmia	r3!, {r0, r4, r5}
 1421 0016 31C2     		stmia	r2!, {r0, r4, r5}
 1422 0018 1B68     		ldr	r3, [r3]
 1423 001a 1360     		str	r3, [r2]
1069:Drivers/STM32F0xx_HAL_Driver/Src/stm32f0xx_hal_rcc.c ****                                            9U,10U, 11U, 12U, 13U, 14U, 15U, 16U};
1070:Drivers/STM32F0xx_HAL_Driver/Src/stm32f0xx_hal_rcc.c **** 
1071:Drivers/STM32F0xx_HAL_Driver/Src/stm32f0xx_hal_rcc.c ****   uint32_t tmpreg = 0U, prediv = 0U, pllclk = 0U, pllmul = 0U;
 1424              		.loc 1 1071 3 is_stmt 1 view .LVU405
 1425              	.LVL83:
1072:Drivers/STM32F0xx_HAL_Driver/Src/stm32f0xx_hal_rcc.c ****   uint32_t sysclockfreq = 0U;
 1426              		.loc 1 1072 3 view .LVU406
1073:Drivers/STM32F0xx_HAL_Driver/Src/stm32f0xx_hal_rcc.c ****   
1074:Drivers/STM32F0xx_HAL_Driver/Src/stm32f0xx_hal_rcc.c ****   tmpreg = RCC->CFGR;
 1427              		.loc 1 1074 3 view .LVU407
 1428              		.loc 1 1074 10 is_stmt 0 view .LVU408
 1429 001c 1A4B     		ldr	r3, .L140+8
 1430 001e 5A68     		ldr	r2, [r3, #4]
 1431              	.LVL84:
1075:Drivers/STM32F0xx_HAL_Driver/Src/stm32f0xx_hal_rcc.c ****   
1076:Drivers/STM32F0xx_HAL_Driver/Src/stm32f0xx_hal_rcc.c ****   /* Get SYSCLK source -------------------------------------------------------*/
1077:Drivers/STM32F0xx_HAL_Driver/Src/stm32f0xx_hal_rcc.c ****   switch (tmpreg & RCC_CFGR_SWS)
 1432              		.loc 1 1077 3 is_stmt 1 view .LVU409
 1433              		.loc 1 1077 18 is_stmt 0 view .LVU410
 1434 0020 0C23     		movs	r3, #12
 1435 0022 1340     		ands	r3, r2
 1436              		.loc 1 1077 3 view .LVU411
 1437 0024 082B     		cmp	r3, #8
 1438 0026 04D0     		beq	.L133
 1439 0028 0C2B     		cmp	r3, #12
 1440 002a 26D1     		bne	.L137
1078:Drivers/STM32F0xx_HAL_Driver/Src/stm32f0xx_hal_rcc.c ****   {
1079:Drivers/STM32F0xx_HAL_Driver/Src/stm32f0xx_hal_rcc.c ****     case RCC_SYSCLKSOURCE_STATUS_HSE:  /* HSE used as system clock */
1080:Drivers/STM32F0xx_HAL_Driver/Src/stm32f0xx_hal_rcc.c ****     {
1081:Drivers/STM32F0xx_HAL_Driver/Src/stm32f0xx_hal_rcc.c ****       sysclockfreq = HSE_VALUE;
ARM GAS  C:\Users\0.0\AppData\Local\Temp\cceJoyYc.s 			page 48


1082:Drivers/STM32F0xx_HAL_Driver/Src/stm32f0xx_hal_rcc.c ****       break;
1083:Drivers/STM32F0xx_HAL_Driver/Src/stm32f0xx_hal_rcc.c ****     }
1084:Drivers/STM32F0xx_HAL_Driver/Src/stm32f0xx_hal_rcc.c ****     case RCC_SYSCLKSOURCE_STATUS_PLLCLK:  /* PLL used as system clock */
1085:Drivers/STM32F0xx_HAL_Driver/Src/stm32f0xx_hal_rcc.c ****     {
1086:Drivers/STM32F0xx_HAL_Driver/Src/stm32f0xx_hal_rcc.c ****       pllmul = aPLLMULFactorTable[(uint32_t)(tmpreg & RCC_CFGR_PLLMUL) >> RCC_CFGR_PLLMUL_BITNUMBER
1087:Drivers/STM32F0xx_HAL_Driver/Src/stm32f0xx_hal_rcc.c ****       prediv = aPredivFactorTable[(uint32_t)(RCC->CFGR2 & RCC_CFGR2_PREDIV) >> RCC_CFGR2_PREDIV_BIT
1088:Drivers/STM32F0xx_HAL_Driver/Src/stm32f0xx_hal_rcc.c ****       if ((tmpreg & RCC_CFGR_PLLSRC) == RCC_PLLSOURCE_HSE)
1089:Drivers/STM32F0xx_HAL_Driver/Src/stm32f0xx_hal_rcc.c ****       {
1090:Drivers/STM32F0xx_HAL_Driver/Src/stm32f0xx_hal_rcc.c ****         /* HSE used as PLL clock source : PLLCLK = HSE/PREDIV * PLLMUL */
1091:Drivers/STM32F0xx_HAL_Driver/Src/stm32f0xx_hal_rcc.c ****         pllclk = (HSE_VALUE / prediv) * pllmul;
1092:Drivers/STM32F0xx_HAL_Driver/Src/stm32f0xx_hal_rcc.c ****       }
1093:Drivers/STM32F0xx_HAL_Driver/Src/stm32f0xx_hal_rcc.c **** #if defined(RCC_CFGR_PLLSRC_HSI48_PREDIV)
1094:Drivers/STM32F0xx_HAL_Driver/Src/stm32f0xx_hal_rcc.c ****       else if ((tmpreg & RCC_CFGR_PLLSRC) == RCC_PLLSOURCE_HSI48)
1095:Drivers/STM32F0xx_HAL_Driver/Src/stm32f0xx_hal_rcc.c ****       {
1096:Drivers/STM32F0xx_HAL_Driver/Src/stm32f0xx_hal_rcc.c ****         /* HSI48 used as PLL clock source : PLLCLK = HSI48/PREDIV * PLLMUL */
1097:Drivers/STM32F0xx_HAL_Driver/Src/stm32f0xx_hal_rcc.c ****         pllclk = (HSI48_VALUE / prediv) * pllmul;
1098:Drivers/STM32F0xx_HAL_Driver/Src/stm32f0xx_hal_rcc.c ****       }
1099:Drivers/STM32F0xx_HAL_Driver/Src/stm32f0xx_hal_rcc.c **** #endif /* RCC_CFGR_PLLSRC_HSI48_PREDIV */
1100:Drivers/STM32F0xx_HAL_Driver/Src/stm32f0xx_hal_rcc.c ****       else
1101:Drivers/STM32F0xx_HAL_Driver/Src/stm32f0xx_hal_rcc.c ****       {
1102:Drivers/STM32F0xx_HAL_Driver/Src/stm32f0xx_hal_rcc.c **** #if  (defined(STM32F042x6) || defined(STM32F048xx) || defined(STM32F070x6) || defined(STM32F071xB) 
1103:Drivers/STM32F0xx_HAL_Driver/Src/stm32f0xx_hal_rcc.c ****         /* HSI used as PLL clock source : PLLCLK = HSI/PREDIV * PLLMUL */
1104:Drivers/STM32F0xx_HAL_Driver/Src/stm32f0xx_hal_rcc.c ****         pllclk = (HSI_VALUE / prediv) * pllmul;
1105:Drivers/STM32F0xx_HAL_Driver/Src/stm32f0xx_hal_rcc.c **** #else
1106:Drivers/STM32F0xx_HAL_Driver/Src/stm32f0xx_hal_rcc.c ****         /* HSI used as PLL clock source : PLLCLK = HSI/2 * PLLMUL */
1107:Drivers/STM32F0xx_HAL_Driver/Src/stm32f0xx_hal_rcc.c ****         pllclk = (uint32_t)((HSI_VALUE >> 1U) * pllmul);
1108:Drivers/STM32F0xx_HAL_Driver/Src/stm32f0xx_hal_rcc.c **** #endif
1109:Drivers/STM32F0xx_HAL_Driver/Src/stm32f0xx_hal_rcc.c ****       }
1110:Drivers/STM32F0xx_HAL_Driver/Src/stm32f0xx_hal_rcc.c ****       sysclockfreq = pllclk;
1111:Drivers/STM32F0xx_HAL_Driver/Src/stm32f0xx_hal_rcc.c ****       break;
1112:Drivers/STM32F0xx_HAL_Driver/Src/stm32f0xx_hal_rcc.c ****     }
1113:Drivers/STM32F0xx_HAL_Driver/Src/stm32f0xx_hal_rcc.c **** #if defined(RCC_CFGR_SWS_HSI48)
1114:Drivers/STM32F0xx_HAL_Driver/Src/stm32f0xx_hal_rcc.c ****     case RCC_SYSCLKSOURCE_STATUS_HSI48:    /* HSI48 used as system clock source */
1115:Drivers/STM32F0xx_HAL_Driver/Src/stm32f0xx_hal_rcc.c ****     {
1116:Drivers/STM32F0xx_HAL_Driver/Src/stm32f0xx_hal_rcc.c ****       sysclockfreq = HSI48_VALUE;
 1441              		.loc 1 1116 20 view .LVU412
 1442 002c 1748     		ldr	r0, .L140+12
 1443              	.LVL85:
 1444              	.L132:
1117:Drivers/STM32F0xx_HAL_Driver/Src/stm32f0xx_hal_rcc.c ****       break;
1118:Drivers/STM32F0xx_HAL_Driver/Src/stm32f0xx_hal_rcc.c ****     }
1119:Drivers/STM32F0xx_HAL_Driver/Src/stm32f0xx_hal_rcc.c **** #endif /* RCC_CFGR_SWS_HSI48 */
1120:Drivers/STM32F0xx_HAL_Driver/Src/stm32f0xx_hal_rcc.c ****     case RCC_SYSCLKSOURCE_STATUS_HSI:  /* HSI used as system clock source */
1121:Drivers/STM32F0xx_HAL_Driver/Src/stm32f0xx_hal_rcc.c ****     default: /* HSI used as system clock */
1122:Drivers/STM32F0xx_HAL_Driver/Src/stm32f0xx_hal_rcc.c ****     {
1123:Drivers/STM32F0xx_HAL_Driver/Src/stm32f0xx_hal_rcc.c ****       sysclockfreq = HSI_VALUE;
1124:Drivers/STM32F0xx_HAL_Driver/Src/stm32f0xx_hal_rcc.c ****       break;
1125:Drivers/STM32F0xx_HAL_Driver/Src/stm32f0xx_hal_rcc.c ****     }
1126:Drivers/STM32F0xx_HAL_Driver/Src/stm32f0xx_hal_rcc.c ****   }
1127:Drivers/STM32F0xx_HAL_Driver/Src/stm32f0xx_hal_rcc.c ****   return sysclockfreq;
1128:Drivers/STM32F0xx_HAL_Driver/Src/stm32f0xx_hal_rcc.c **** }
 1445              		.loc 1 1128 1 view .LVU413
 1446 002e 09B0     		add	sp, sp, #36
 1447              		@ sp needed
 1448 0030 30BD     		pop	{r4, r5, pc}
 1449              	.LVL86:
 1450              	.L133:
ARM GAS  C:\Users\0.0\AppData\Local\Temp\cceJoyYc.s 			page 49


1086:Drivers/STM32F0xx_HAL_Driver/Src/stm32f0xx_hal_rcc.c ****       prediv = aPredivFactorTable[(uint32_t)(RCC->CFGR2 & RCC_CFGR2_PREDIV) >> RCC_CFGR2_PREDIV_BIT
 1451              		.loc 1 1086 7 is_stmt 1 view .LVU414
1086:Drivers/STM32F0xx_HAL_Driver/Src/stm32f0xx_hal_rcc.c ****       prediv = aPredivFactorTable[(uint32_t)(RCC->CFGR2 & RCC_CFGR2_PREDIV) >> RCC_CFGR2_PREDIV_BIT
 1452              		.loc 1 1086 72 is_stmt 0 view .LVU415
 1453 0032 910C     		lsrs	r1, r2, #18
 1454 0034 0F23     		movs	r3, #15
 1455 0036 1940     		ands	r1, r3
1086:Drivers/STM32F0xx_HAL_Driver/Src/stm32f0xx_hal_rcc.c ****       prediv = aPredivFactorTable[(uint32_t)(RCC->CFGR2 & RCC_CFGR2_PREDIV) >> RCC_CFGR2_PREDIV_BIT
 1456              		.loc 1 1086 34 view .LVU416
 1457 0038 04A8     		add	r0, sp, #16
 1458 003a 445C     		ldrb	r4, [r0, r1]
 1459              	.LVL87:
1087:Drivers/STM32F0xx_HAL_Driver/Src/stm32f0xx_hal_rcc.c ****       if ((tmpreg & RCC_CFGR_PLLSRC) == RCC_PLLSOURCE_HSE)
 1460              		.loc 1 1087 7 is_stmt 1 view .LVU417
1087:Drivers/STM32F0xx_HAL_Driver/Src/stm32f0xx_hal_rcc.c ****       if ((tmpreg & RCC_CFGR_PLLSRC) == RCC_PLLSOURCE_HSE)
 1461              		.loc 1 1087 49 is_stmt 0 view .LVU418
 1462 003c 1249     		ldr	r1, .L140+8
 1463 003e C96A     		ldr	r1, [r1, #44]
1087:Drivers/STM32F0xx_HAL_Driver/Src/stm32f0xx_hal_rcc.c ****       if ((tmpreg & RCC_CFGR_PLLSRC) == RCC_PLLSOURCE_HSE)
 1464              		.loc 1 1087 77 view .LVU419
 1465 0040 0B40     		ands	r3, r1
1087:Drivers/STM32F0xx_HAL_Driver/Src/stm32f0xx_hal_rcc.c ****       if ((tmpreg & RCC_CFGR_PLLSRC) == RCC_PLLSOURCE_HSE)
 1466              		.loc 1 1087 34 view .LVU420
 1467 0042 6946     		mov	r1, sp
 1468 0044 C95C     		ldrb	r1, [r1, r3]
 1469              	.LVL88:
1088:Drivers/STM32F0xx_HAL_Driver/Src/stm32f0xx_hal_rcc.c ****       {
 1470              		.loc 1 1088 7 is_stmt 1 view .LVU421
1088:Drivers/STM32F0xx_HAL_Driver/Src/stm32f0xx_hal_rcc.c ****       {
 1471              		.loc 1 1088 19 is_stmt 0 view .LVU422
 1472 0046 C023     		movs	r3, #192
 1473 0048 5B02     		lsls	r3, r3, #9
 1474 004a 1A40     		ands	r2, r3
 1475              	.LVL89:
1088:Drivers/STM32F0xx_HAL_Driver/Src/stm32f0xx_hal_rcc.c ****       {
 1476              		.loc 1 1088 10 view .LVU423
 1477 004c 8023     		movs	r3, #128
 1478 004e 5B02     		lsls	r3, r3, #9
 1479 0050 9A42     		cmp	r2, r3
 1480 0052 08D0     		beq	.L138
1094:Drivers/STM32F0xx_HAL_Driver/Src/stm32f0xx_hal_rcc.c ****       {
 1481              		.loc 1 1094 12 is_stmt 1 view .LVU424
1094:Drivers/STM32F0xx_HAL_Driver/Src/stm32f0xx_hal_rcc.c ****       {
 1482              		.loc 1 1094 15 is_stmt 0 view .LVU425
 1483 0054 C023     		movs	r3, #192
 1484 0056 5B02     		lsls	r3, r3, #9
 1485 0058 9A42     		cmp	r2, r3
 1486 005a 09D0     		beq	.L139
1104:Drivers/STM32F0xx_HAL_Driver/Src/stm32f0xx_hal_rcc.c **** #else
 1487              		.loc 1 1104 9 is_stmt 1 view .LVU426
1104:Drivers/STM32F0xx_HAL_Driver/Src/stm32f0xx_hal_rcc.c **** #else
 1488              		.loc 1 1104 29 is_stmt 0 view .LVU427
 1489 005c 0C48     		ldr	r0, .L140+16
 1490 005e FFF7FEFF 		bl	__aeabi_uidiv
 1491              	.LVL90:
1104:Drivers/STM32F0xx_HAL_Driver/Src/stm32f0xx_hal_rcc.c **** #else
 1492              		.loc 1 1104 16 view .LVU428
ARM GAS  C:\Users\0.0\AppData\Local\Temp\cceJoyYc.s 			page 50


 1493 0062 6043     		muls	r0, r4
 1494              	.LVL91:
1104:Drivers/STM32F0xx_HAL_Driver/Src/stm32f0xx_hal_rcc.c **** #else
 1495              		.loc 1 1104 16 view .LVU429
 1496 0064 E3E7     		b	.L132
 1497              	.LVL92:
 1498              	.L138:
1091:Drivers/STM32F0xx_HAL_Driver/Src/stm32f0xx_hal_rcc.c ****       }
 1499              		.loc 1 1091 9 is_stmt 1 view .LVU430
1091:Drivers/STM32F0xx_HAL_Driver/Src/stm32f0xx_hal_rcc.c ****       }
 1500              		.loc 1 1091 29 is_stmt 0 view .LVU431
 1501 0066 0A48     		ldr	r0, .L140+16
 1502 0068 FFF7FEFF 		bl	__aeabi_uidiv
 1503              	.LVL93:
1091:Drivers/STM32F0xx_HAL_Driver/Src/stm32f0xx_hal_rcc.c ****       }
 1504              		.loc 1 1091 16 view .LVU432
 1505 006c 6043     		muls	r0, r4
 1506              	.LVL94:
1091:Drivers/STM32F0xx_HAL_Driver/Src/stm32f0xx_hal_rcc.c ****       }
 1507              		.loc 1 1091 16 view .LVU433
 1508 006e DEE7     		b	.L132
 1509              	.LVL95:
 1510              	.L139:
1097:Drivers/STM32F0xx_HAL_Driver/Src/stm32f0xx_hal_rcc.c ****       }
 1511              		.loc 1 1097 9 is_stmt 1 view .LVU434
1097:Drivers/STM32F0xx_HAL_Driver/Src/stm32f0xx_hal_rcc.c ****       }
 1512              		.loc 1 1097 31 is_stmt 0 view .LVU435
 1513 0070 0648     		ldr	r0, .L140+12
 1514 0072 FFF7FEFF 		bl	__aeabi_uidiv
 1515              	.LVL96:
1097:Drivers/STM32F0xx_HAL_Driver/Src/stm32f0xx_hal_rcc.c ****       }
 1516              		.loc 1 1097 16 view .LVU436
 1517 0076 6043     		muls	r0, r4
 1518              	.LVL97:
1097:Drivers/STM32F0xx_HAL_Driver/Src/stm32f0xx_hal_rcc.c ****       }
 1519              		.loc 1 1097 16 view .LVU437
 1520 0078 D9E7     		b	.L132
 1521              	.LVL98:
 1522              	.L137:
1077:Drivers/STM32F0xx_HAL_Driver/Src/stm32f0xx_hal_rcc.c ****   {
 1523              		.loc 1 1077 3 view .LVU438
 1524 007a 0548     		ldr	r0, .L140+16
 1525              	.LVL99:
1127:Drivers/STM32F0xx_HAL_Driver/Src/stm32f0xx_hal_rcc.c **** }
 1526              		.loc 1 1127 3 is_stmt 1 view .LVU439
1127:Drivers/STM32F0xx_HAL_Driver/Src/stm32f0xx_hal_rcc.c **** }
 1527              		.loc 1 1127 10 is_stmt 0 view .LVU440
 1528 007c D7E7     		b	.L132
 1529              	.L141:
 1530 007e C046     		.align	2
 1531              	.L140:
 1532 0080 00000000 		.word	.LC1
 1533 0084 14000000 		.word	.LC3
 1534 0088 00100240 		.word	1073876992
 1535 008c 006CDC02 		.word	48000000
 1536 0090 00127A00 		.word	8000000
 1537              		.cfi_endproc
ARM GAS  C:\Users\0.0\AppData\Local\Temp\cceJoyYc.s 			page 51


 1538              	.LFE43:
 1540              		.section	.text.HAL_RCC_ClockConfig,"ax",%progbits
 1541              		.align	1
 1542              		.global	HAL_RCC_ClockConfig
 1543              		.syntax unified
 1544              		.code	16
 1545              		.thumb_func
 1547              	HAL_RCC_ClockConfig:
 1548              	.LVL100:
 1549              	.LFB39:
 726:Drivers/STM32F0xx_HAL_Driver/Src/stm32f0xx_hal_rcc.c ****   uint32_t tickstart = 0U;
 1550              		.loc 1 726 1 is_stmt 1 view -0
 1551              		.cfi_startproc
 1552              		@ args = 0, pretend = 0, frame = 0
 1553              		@ frame_needed = 0, uses_anonymous_args = 0
 726:Drivers/STM32F0xx_HAL_Driver/Src/stm32f0xx_hal_rcc.c ****   uint32_t tickstart = 0U;
 1554              		.loc 1 726 1 is_stmt 0 view .LVU442
 1555 0000 70B5     		push	{r4, r5, r6, lr}
 1556              	.LCFI6:
 1557              		.cfi_def_cfa_offset 16
 1558              		.cfi_offset 4, -16
 1559              		.cfi_offset 5, -12
 1560              		.cfi_offset 6, -8
 1561              		.cfi_offset 14, -4
 1562 0002 0400     		movs	r4, r0
 1563 0004 0D00     		movs	r5, r1
 727:Drivers/STM32F0xx_HAL_Driver/Src/stm32f0xx_hal_rcc.c ****   
 1564              		.loc 1 727 3 is_stmt 1 view .LVU443
 1565              	.LVL101:
 730:Drivers/STM32F0xx_HAL_Driver/Src/stm32f0xx_hal_rcc.c ****   assert_param(IS_RCC_CLOCKTYPE(RCC_ClkInitStruct->ClockType));
 1566              		.loc 1 730 3 view .LVU444
 731:Drivers/STM32F0xx_HAL_Driver/Src/stm32f0xx_hal_rcc.c ****   assert_param(IS_FLASH_LATENCY(FLatency));
 1567              		.loc 1 731 3 view .LVU445
 732:Drivers/STM32F0xx_HAL_Driver/Src/stm32f0xx_hal_rcc.c **** 
 1568              		.loc 1 732 3 view .LVU446
 739:Drivers/STM32F0xx_HAL_Driver/Src/stm32f0xx_hal_rcc.c ****   {    
 1569              		.loc 1 739 3 view .LVU447
 739:Drivers/STM32F0xx_HAL_Driver/Src/stm32f0xx_hal_rcc.c ****   {    
 1570              		.loc 1 739 23 is_stmt 0 view .LVU448
 1571 0006 5A4B     		ldr	r3, .L185
 1572 0008 1A68     		ldr	r2, [r3]
 739:Drivers/STM32F0xx_HAL_Driver/Src/stm32f0xx_hal_rcc.c ****   {    
 1573              		.loc 1 739 29 view .LVU449
 1574 000a 0123     		movs	r3, #1
 1575 000c 1340     		ands	r3, r2
 739:Drivers/STM32F0xx_HAL_Driver/Src/stm32f0xx_hal_rcc.c ****   {    
 1576              		.loc 1 739 5 view .LVU450
 1577 000e 8B42     		cmp	r3, r1
 1578 0010 0AD2     		bcs	.L143
 742:Drivers/STM32F0xx_HAL_Driver/Src/stm32f0xx_hal_rcc.c ****     
 1579              		.loc 1 742 5 is_stmt 1 view .LVU451
 1580 0012 5749     		ldr	r1, .L185
 1581              	.LVL102:
 742:Drivers/STM32F0xx_HAL_Driver/Src/stm32f0xx_hal_rcc.c ****     
 1582              		.loc 1 742 5 is_stmt 0 view .LVU452
 1583 0014 0B68     		ldr	r3, [r1]
 1584 0016 0122     		movs	r2, #1
ARM GAS  C:\Users\0.0\AppData\Local\Temp\cceJoyYc.s 			page 52


 1585 0018 9343     		bics	r3, r2
 1586 001a 2B43     		orrs	r3, r5
 1587 001c 0B60     		str	r3, [r1]
 746:Drivers/STM32F0xx_HAL_Driver/Src/stm32f0xx_hal_rcc.c ****     {
 1588              		.loc 1 746 5 is_stmt 1 view .LVU453
 746:Drivers/STM32F0xx_HAL_Driver/Src/stm32f0xx_hal_rcc.c ****     {
 1589              		.loc 1 746 14 is_stmt 0 view .LVU454
 1590 001e 0B68     		ldr	r3, [r1]
 746:Drivers/STM32F0xx_HAL_Driver/Src/stm32f0xx_hal_rcc.c ****     {
 1591              		.loc 1 746 20 view .LVU455
 1592 0020 1A40     		ands	r2, r3
 746:Drivers/STM32F0xx_HAL_Driver/Src/stm32f0xx_hal_rcc.c ****     {
 1593              		.loc 1 746 7 view .LVU456
 1594 0022 AA42     		cmp	r2, r5
 1595 0024 00D0     		beq	.LCB1499
 1596 0026 9CE0     		b	.L163	@long jump
 1597              	.LCB1499:
 1598              	.L143:
 753:Drivers/STM32F0xx_HAL_Driver/Src/stm32f0xx_hal_rcc.c ****   {
 1599              		.loc 1 753 3 is_stmt 1 view .LVU457
 753:Drivers/STM32F0xx_HAL_Driver/Src/stm32f0xx_hal_rcc.c ****   {
 1600              		.loc 1 753 25 is_stmt 0 view .LVU458
 1601 0028 2368     		ldr	r3, [r4]
 753:Drivers/STM32F0xx_HAL_Driver/Src/stm32f0xx_hal_rcc.c ****   {
 1602              		.loc 1 753 5 view .LVU459
 1603 002a 9B07     		lsls	r3, r3, #30
 1604 002c 06D5     		bpl	.L145
 755:Drivers/STM32F0xx_HAL_Driver/Src/stm32f0xx_hal_rcc.c ****     MODIFY_REG(RCC->CFGR, RCC_CFGR_HPRE, RCC_ClkInitStruct->AHBCLKDivider);
 1605              		.loc 1 755 5 is_stmt 1 view .LVU460
 756:Drivers/STM32F0xx_HAL_Driver/Src/stm32f0xx_hal_rcc.c ****   }
 1606              		.loc 1 756 5 view .LVU461
 1607 002e 514A     		ldr	r2, .L185+4
 1608 0030 5368     		ldr	r3, [r2, #4]
 1609 0032 F021     		movs	r1, #240
 1610 0034 8B43     		bics	r3, r1
 1611 0036 A168     		ldr	r1, [r4, #8]
 1612 0038 0B43     		orrs	r3, r1
 1613 003a 5360     		str	r3, [r2, #4]
 1614              	.L145:
 760:Drivers/STM32F0xx_HAL_Driver/Src/stm32f0xx_hal_rcc.c ****   {    
 1615              		.loc 1 760 3 view .LVU462
 760:Drivers/STM32F0xx_HAL_Driver/Src/stm32f0xx_hal_rcc.c ****   {    
 1616              		.loc 1 760 25 is_stmt 0 view .LVU463
 1617 003c 2368     		ldr	r3, [r4]
 760:Drivers/STM32F0xx_HAL_Driver/Src/stm32f0xx_hal_rcc.c ****   {    
 1618              		.loc 1 760 5 view .LVU464
 1619 003e DB07     		lsls	r3, r3, #31
 1620 0040 64D5     		bpl	.L146
 762:Drivers/STM32F0xx_HAL_Driver/Src/stm32f0xx_hal_rcc.c ****     
 1621              		.loc 1 762 5 is_stmt 1 view .LVU465
 765:Drivers/STM32F0xx_HAL_Driver/Src/stm32f0xx_hal_rcc.c ****     {
 1622              		.loc 1 765 5 view .LVU466
 765:Drivers/STM32F0xx_HAL_Driver/Src/stm32f0xx_hal_rcc.c ****     {
 1623              		.loc 1 765 25 is_stmt 0 view .LVU467
 1624 0042 6368     		ldr	r3, [r4, #4]
 765:Drivers/STM32F0xx_HAL_Driver/Src/stm32f0xx_hal_rcc.c ****     {
 1625              		.loc 1 765 7 view .LVU468
ARM GAS  C:\Users\0.0\AppData\Local\Temp\cceJoyYc.s 			page 53


 1626 0044 012B     		cmp	r3, #1
 1627 0046 09D0     		beq	.L181
 774:Drivers/STM32F0xx_HAL_Driver/Src/stm32f0xx_hal_rcc.c ****     {
 1628              		.loc 1 774 10 is_stmt 1 view .LVU469
 774:Drivers/STM32F0xx_HAL_Driver/Src/stm32f0xx_hal_rcc.c ****     {
 1629              		.loc 1 774 12 is_stmt 0 view .LVU470
 1630 0048 022B     		cmp	r3, #2
 1631 004a 29D0     		beq	.L182
 784:Drivers/STM32F0xx_HAL_Driver/Src/stm32f0xx_hal_rcc.c ****     {
 1632              		.loc 1 784 10 is_stmt 1 view .LVU471
 784:Drivers/STM32F0xx_HAL_Driver/Src/stm32f0xx_hal_rcc.c ****     {
 1633              		.loc 1 784 12 is_stmt 0 view .LVU472
 1634 004c 032B     		cmp	r3, #3
 1635 004e 2DD0     		beq	.L183
 797:Drivers/STM32F0xx_HAL_Driver/Src/stm32f0xx_hal_rcc.c ****       {
 1636              		.loc 1 797 7 is_stmt 1 view .LVU473
 797:Drivers/STM32F0xx_HAL_Driver/Src/stm32f0xx_hal_rcc.c ****       {
 1637              		.loc 1 797 10 is_stmt 0 view .LVU474
 1638 0050 484A     		ldr	r2, .L185+4
 1639 0052 1268     		ldr	r2, [r2]
 797:Drivers/STM32F0xx_HAL_Driver/Src/stm32f0xx_hal_rcc.c ****       {
 1640              		.loc 1 797 9 view .LVU475
 1641 0054 9207     		lsls	r2, r2, #30
 1642 0056 06D4     		bmi	.L148
 799:Drivers/STM32F0xx_HAL_Driver/Src/stm32f0xx_hal_rcc.c ****       }
 1643              		.loc 1 799 16 view .LVU476
 1644 0058 0120     		movs	r0, #1
 1645              	.LVL103:
 799:Drivers/STM32F0xx_HAL_Driver/Src/stm32f0xx_hal_rcc.c ****       }
 1646              		.loc 1 799 16 view .LVU477
 1647 005a 81E0     		b	.L144
 1648              	.LVL104:
 1649              	.L181:
 768:Drivers/STM32F0xx_HAL_Driver/Src/stm32f0xx_hal_rcc.c ****       {
 1650              		.loc 1 768 7 is_stmt 1 view .LVU478
 768:Drivers/STM32F0xx_HAL_Driver/Src/stm32f0xx_hal_rcc.c ****       {
 1651              		.loc 1 768 10 is_stmt 0 view .LVU479
 1652 005c 454A     		ldr	r2, .L185+4
 1653 005e 1268     		ldr	r2, [r2]
 768:Drivers/STM32F0xx_HAL_Driver/Src/stm32f0xx_hal_rcc.c ****       {
 1654              		.loc 1 768 9 view .LVU480
 1655 0060 9203     		lsls	r2, r2, #14
 1656 0062 00D4     		bmi	.LCB1555
 1657 0064 7FE0     		b	.L184	@long jump
 1658              	.LCB1555:
 1659              	.L148:
 802:Drivers/STM32F0xx_HAL_Driver/Src/stm32f0xx_hal_rcc.c **** 
 1660              		.loc 1 802 5 is_stmt 1 view .LVU481
 1661 0066 4349     		ldr	r1, .L185+4
 1662 0068 4A68     		ldr	r2, [r1, #4]
 1663 006a 0320     		movs	r0, #3
 1664              	.LVL105:
 802:Drivers/STM32F0xx_HAL_Driver/Src/stm32f0xx_hal_rcc.c **** 
 1665              		.loc 1 802 5 is_stmt 0 view .LVU482
 1666 006c 8243     		bics	r2, r0
 1667 006e 1343     		orrs	r3, r2
 1668 0070 4B60     		str	r3, [r1, #4]
ARM GAS  C:\Users\0.0\AppData\Local\Temp\cceJoyYc.s 			page 54


 805:Drivers/STM32F0xx_HAL_Driver/Src/stm32f0xx_hal_rcc.c ****     
 1669              		.loc 1 805 5 is_stmt 1 view .LVU483
 805:Drivers/STM32F0xx_HAL_Driver/Src/stm32f0xx_hal_rcc.c ****     
 1670              		.loc 1 805 17 is_stmt 0 view .LVU484
 1671 0072 FFF7FEFF 		bl	HAL_GetTick
 1672              	.LVL106:
 1673 0076 0600     		movs	r6, r0
 1674              	.LVL107:
 807:Drivers/STM32F0xx_HAL_Driver/Src/stm32f0xx_hal_rcc.c ****     {
 1675              		.loc 1 807 5 is_stmt 1 view .LVU485
 807:Drivers/STM32F0xx_HAL_Driver/Src/stm32f0xx_hal_rcc.c ****     {
 1676              		.loc 1 807 25 is_stmt 0 view .LVU486
 1677 0078 6368     		ldr	r3, [r4, #4]
 807:Drivers/STM32F0xx_HAL_Driver/Src/stm32f0xx_hal_rcc.c ****     {
 1678              		.loc 1 807 7 view .LVU487
 1679 007a 012B     		cmp	r3, #1
 1680 007c 1CD0     		beq	.L151
 817:Drivers/STM32F0xx_HAL_Driver/Src/stm32f0xx_hal_rcc.c ****     {
 1681              		.loc 1 817 10 is_stmt 1 view .LVU488
 817:Drivers/STM32F0xx_HAL_Driver/Src/stm32f0xx_hal_rcc.c ****     {
 1682              		.loc 1 817 12 is_stmt 0 view .LVU489
 1683 007e 022B     		cmp	r3, #2
 1684 0080 28D0     		beq	.L154
 828:Drivers/STM32F0xx_HAL_Driver/Src/stm32f0xx_hal_rcc.c ****     {
 1685              		.loc 1 828 10 is_stmt 1 view .LVU490
 828:Drivers/STM32F0xx_HAL_Driver/Src/stm32f0xx_hal_rcc.c ****     {
 1686              		.loc 1 828 12 is_stmt 0 view .LVU491
 1687 0082 032B     		cmp	r3, #3
 1688 0084 34D0     		beq	.L157
 1689              	.LVL108:
 1690              	.L158:
 841:Drivers/STM32F0xx_HAL_Driver/Src/stm32f0xx_hal_rcc.c ****       {
 1691              		.loc 1 841 44 is_stmt 1 view .LVU492
 841:Drivers/STM32F0xx_HAL_Driver/Src/stm32f0xx_hal_rcc.c ****       {
 1692              		.loc 1 841 14 is_stmt 0 view .LVU493
 1693 0086 3B4B     		ldr	r3, .L185+4
 1694 0088 5B68     		ldr	r3, [r3, #4]
 1695 008a 0C22     		movs	r2, #12
 841:Drivers/STM32F0xx_HAL_Driver/Src/stm32f0xx_hal_rcc.c ****       {
 1696              		.loc 1 841 44 view .LVU494
 1697 008c 1A42     		tst	r2, r3
 1698 008e 3DD0     		beq	.L146
 843:Drivers/STM32F0xx_HAL_Driver/Src/stm32f0xx_hal_rcc.c ****         {
 1699              		.loc 1 843 9 is_stmt 1 view .LVU495
 843:Drivers/STM32F0xx_HAL_Driver/Src/stm32f0xx_hal_rcc.c ****         {
 1700              		.loc 1 843 13 is_stmt 0 view .LVU496
 1701 0090 FFF7FEFF 		bl	HAL_GetTick
 1702              	.LVL109:
 843:Drivers/STM32F0xx_HAL_Driver/Src/stm32f0xx_hal_rcc.c ****         {
 1703              		.loc 1 843 27 discriminator 1 view .LVU497
 1704 0094 801B     		subs	r0, r0, r6
 843:Drivers/STM32F0xx_HAL_Driver/Src/stm32f0xx_hal_rcc.c ****         {
 1705              		.loc 1 843 11 discriminator 1 view .LVU498
 1706 0096 384B     		ldr	r3, .L185+8
 1707 0098 9842     		cmp	r0, r3
 1708 009a F4D9     		bls	.L158
 845:Drivers/STM32F0xx_HAL_Driver/Src/stm32f0xx_hal_rcc.c ****         }
ARM GAS  C:\Users\0.0\AppData\Local\Temp\cceJoyYc.s 			page 55


 1709              		.loc 1 845 18 view .LVU499
 1710 009c 0320     		movs	r0, #3
 1711 009e 5FE0     		b	.L144
 1712              	.LVL110:
 1713              	.L182:
 777:Drivers/STM32F0xx_HAL_Driver/Src/stm32f0xx_hal_rcc.c ****       {
 1714              		.loc 1 777 7 is_stmt 1 view .LVU500
 777:Drivers/STM32F0xx_HAL_Driver/Src/stm32f0xx_hal_rcc.c ****       {
 1715              		.loc 1 777 10 is_stmt 0 view .LVU501
 1716 00a0 344A     		ldr	r2, .L185+4
 1717 00a2 1268     		ldr	r2, [r2]
 777:Drivers/STM32F0xx_HAL_Driver/Src/stm32f0xx_hal_rcc.c ****       {
 1718              		.loc 1 777 9 view .LVU502
 1719 00a4 9201     		lsls	r2, r2, #6
 1720 00a6 DED4     		bmi	.L148
 779:Drivers/STM32F0xx_HAL_Driver/Src/stm32f0xx_hal_rcc.c ****       }
 1721              		.loc 1 779 16 view .LVU503
 1722 00a8 0120     		movs	r0, #1
 1723              	.LVL111:
 779:Drivers/STM32F0xx_HAL_Driver/Src/stm32f0xx_hal_rcc.c ****       }
 1724              		.loc 1 779 16 view .LVU504
 1725 00aa 59E0     		b	.L144
 1726              	.LVL112:
 1727              	.L183:
 787:Drivers/STM32F0xx_HAL_Driver/Src/stm32f0xx_hal_rcc.c ****       {
 1728              		.loc 1 787 7 is_stmt 1 view .LVU505
 787:Drivers/STM32F0xx_HAL_Driver/Src/stm32f0xx_hal_rcc.c ****       {
 1729              		.loc 1 787 10 is_stmt 0 view .LVU506
 1730 00ac 314A     		ldr	r2, .L185+4
 1731 00ae 526B     		ldr	r2, [r2, #52]
 787:Drivers/STM32F0xx_HAL_Driver/Src/stm32f0xx_hal_rcc.c ****       {
 1732              		.loc 1 787 9 view .LVU507
 1733 00b0 D203     		lsls	r2, r2, #15
 1734 00b2 D8D4     		bmi	.L148
 789:Drivers/STM32F0xx_HAL_Driver/Src/stm32f0xx_hal_rcc.c ****       }
 1735              		.loc 1 789 16 view .LVU508
 1736 00b4 0120     		movs	r0, #1
 1737              	.LVL113:
 789:Drivers/STM32F0xx_HAL_Driver/Src/stm32f0xx_hal_rcc.c ****       }
 1738              		.loc 1 789 16 view .LVU509
 1739 00b6 53E0     		b	.L144
 1740              	.LVL114:
 1741              	.L151:
 809:Drivers/STM32F0xx_HAL_Driver/Src/stm32f0xx_hal_rcc.c ****       {
 1742              		.loc 1 809 44 is_stmt 1 view .LVU510
 809:Drivers/STM32F0xx_HAL_Driver/Src/stm32f0xx_hal_rcc.c ****       {
 1743              		.loc 1 809 14 is_stmt 0 view .LVU511
 1744 00b8 2E4B     		ldr	r3, .L185+4
 1745 00ba 5A68     		ldr	r2, [r3, #4]
 1746 00bc 0C23     		movs	r3, #12
 1747 00be 1340     		ands	r3, r2
 809:Drivers/STM32F0xx_HAL_Driver/Src/stm32f0xx_hal_rcc.c ****       {
 1748              		.loc 1 809 44 view .LVU512
 1749 00c0 042B     		cmp	r3, #4
 1750 00c2 23D0     		beq	.L146
 811:Drivers/STM32F0xx_HAL_Driver/Src/stm32f0xx_hal_rcc.c ****         {
 1751              		.loc 1 811 9 is_stmt 1 view .LVU513
ARM GAS  C:\Users\0.0\AppData\Local\Temp\cceJoyYc.s 			page 56


 811:Drivers/STM32F0xx_HAL_Driver/Src/stm32f0xx_hal_rcc.c ****         {
 1752              		.loc 1 811 13 is_stmt 0 view .LVU514
 1753 00c4 FFF7FEFF 		bl	HAL_GetTick
 1754              	.LVL115:
 811:Drivers/STM32F0xx_HAL_Driver/Src/stm32f0xx_hal_rcc.c ****         {
 1755              		.loc 1 811 27 discriminator 1 view .LVU515
 1756 00c8 801B     		subs	r0, r0, r6
 811:Drivers/STM32F0xx_HAL_Driver/Src/stm32f0xx_hal_rcc.c ****         {
 1757              		.loc 1 811 11 discriminator 1 view .LVU516
 1758 00ca 2B4A     		ldr	r2, .L185+8
 1759 00cc 9042     		cmp	r0, r2
 1760 00ce F3D9     		bls	.L151
 813:Drivers/STM32F0xx_HAL_Driver/Src/stm32f0xx_hal_rcc.c ****         }
 1761              		.loc 1 813 18 view .LVU517
 1762 00d0 0320     		movs	r0, #3
 1763 00d2 45E0     		b	.L144
 1764              	.L154:
 819:Drivers/STM32F0xx_HAL_Driver/Src/stm32f0xx_hal_rcc.c ****       {
 1765              		.loc 1 819 44 is_stmt 1 view .LVU518
 819:Drivers/STM32F0xx_HAL_Driver/Src/stm32f0xx_hal_rcc.c ****       {
 1766              		.loc 1 819 14 is_stmt 0 view .LVU519
 1767 00d4 274B     		ldr	r3, .L185+4
 1768 00d6 5A68     		ldr	r2, [r3, #4]
 1769 00d8 0C23     		movs	r3, #12
 1770 00da 1340     		ands	r3, r2
 819:Drivers/STM32F0xx_HAL_Driver/Src/stm32f0xx_hal_rcc.c ****       {
 1771              		.loc 1 819 44 view .LVU520
 1772 00dc 082B     		cmp	r3, #8
 1773 00de 15D0     		beq	.L146
 821:Drivers/STM32F0xx_HAL_Driver/Src/stm32f0xx_hal_rcc.c ****         {
 1774              		.loc 1 821 9 is_stmt 1 view .LVU521
 821:Drivers/STM32F0xx_HAL_Driver/Src/stm32f0xx_hal_rcc.c ****         {
 1775              		.loc 1 821 13 is_stmt 0 view .LVU522
 1776 00e0 FFF7FEFF 		bl	HAL_GetTick
 1777              	.LVL116:
 821:Drivers/STM32F0xx_HAL_Driver/Src/stm32f0xx_hal_rcc.c ****         {
 1778              		.loc 1 821 27 discriminator 1 view .LVU523
 1779 00e4 801B     		subs	r0, r0, r6
 821:Drivers/STM32F0xx_HAL_Driver/Src/stm32f0xx_hal_rcc.c ****         {
 1780              		.loc 1 821 11 discriminator 1 view .LVU524
 1781 00e6 244B     		ldr	r3, .L185+8
 1782 00e8 9842     		cmp	r0, r3
 1783 00ea F3D9     		bls	.L154
 823:Drivers/STM32F0xx_HAL_Driver/Src/stm32f0xx_hal_rcc.c ****         }
 1784              		.loc 1 823 18 view .LVU525
 1785 00ec 0320     		movs	r0, #3
 1786 00ee 37E0     		b	.L144
 1787              	.L157:
 830:Drivers/STM32F0xx_HAL_Driver/Src/stm32f0xx_hal_rcc.c ****       {
 1788              		.loc 1 830 44 is_stmt 1 view .LVU526
 830:Drivers/STM32F0xx_HAL_Driver/Src/stm32f0xx_hal_rcc.c ****       {
 1789              		.loc 1 830 14 is_stmt 0 view .LVU527
 1790 00f0 204B     		ldr	r3, .L185+4
 1791 00f2 5A68     		ldr	r2, [r3, #4]
 1792 00f4 0C23     		movs	r3, #12
 1793 00f6 1340     		ands	r3, r2
 830:Drivers/STM32F0xx_HAL_Driver/Src/stm32f0xx_hal_rcc.c ****       {
ARM GAS  C:\Users\0.0\AppData\Local\Temp\cceJoyYc.s 			page 57


 1794              		.loc 1 830 44 view .LVU528
 1795 00f8 0C2B     		cmp	r3, #12
 1796 00fa 07D0     		beq	.L146
 832:Drivers/STM32F0xx_HAL_Driver/Src/stm32f0xx_hal_rcc.c ****         {
 1797              		.loc 1 832 9 is_stmt 1 view .LVU529
 832:Drivers/STM32F0xx_HAL_Driver/Src/stm32f0xx_hal_rcc.c ****         {
 1798              		.loc 1 832 13 is_stmt 0 view .LVU530
 1799 00fc FFF7FEFF 		bl	HAL_GetTick
 1800              	.LVL117:
 832:Drivers/STM32F0xx_HAL_Driver/Src/stm32f0xx_hal_rcc.c ****         {
 1801              		.loc 1 832 27 discriminator 1 view .LVU531
 1802 0100 801B     		subs	r0, r0, r6
 832:Drivers/STM32F0xx_HAL_Driver/Src/stm32f0xx_hal_rcc.c ****         {
 1803              		.loc 1 832 11 discriminator 1 view .LVU532
 1804 0102 1D4B     		ldr	r3, .L185+8
 1805 0104 9842     		cmp	r0, r3
 1806 0106 F3D9     		bls	.L157
 834:Drivers/STM32F0xx_HAL_Driver/Src/stm32f0xx_hal_rcc.c ****         }
 1807              		.loc 1 834 18 view .LVU533
 1808 0108 0320     		movs	r0, #3
 1809 010a 29E0     		b	.L144
 1810              	.LVL118:
 1811              	.L146:
 851:Drivers/STM32F0xx_HAL_Driver/Src/stm32f0xx_hal_rcc.c ****   {    
 1812              		.loc 1 851 3 is_stmt 1 view .LVU534
 851:Drivers/STM32F0xx_HAL_Driver/Src/stm32f0xx_hal_rcc.c ****   {    
 1813              		.loc 1 851 23 is_stmt 0 view .LVU535
 1814 010c 184B     		ldr	r3, .L185
 1815 010e 1A68     		ldr	r2, [r3]
 851:Drivers/STM32F0xx_HAL_Driver/Src/stm32f0xx_hal_rcc.c ****   {    
 1816              		.loc 1 851 29 view .LVU536
 1817 0110 0123     		movs	r3, #1
 1818 0112 1340     		ands	r3, r2
 851:Drivers/STM32F0xx_HAL_Driver/Src/stm32f0xx_hal_rcc.c ****   {    
 1819              		.loc 1 851 5 view .LVU537
 1820 0114 AB42     		cmp	r3, r5
 1821 0116 09D9     		bls	.L161
 854:Drivers/STM32F0xx_HAL_Driver/Src/stm32f0xx_hal_rcc.c ****     
 1822              		.loc 1 854 5 is_stmt 1 view .LVU538
 1823 0118 1549     		ldr	r1, .L185
 1824 011a 0B68     		ldr	r3, [r1]
 1825 011c 0122     		movs	r2, #1
 1826 011e 9343     		bics	r3, r2
 1827 0120 2B43     		orrs	r3, r5
 1828 0122 0B60     		str	r3, [r1]
 858:Drivers/STM32F0xx_HAL_Driver/Src/stm32f0xx_hal_rcc.c ****     {
 1829              		.loc 1 858 5 view .LVU539
 858:Drivers/STM32F0xx_HAL_Driver/Src/stm32f0xx_hal_rcc.c ****     {
 1830              		.loc 1 858 14 is_stmt 0 view .LVU540
 1831 0124 0B68     		ldr	r3, [r1]
 858:Drivers/STM32F0xx_HAL_Driver/Src/stm32f0xx_hal_rcc.c ****     {
 1832              		.loc 1 858 20 view .LVU541
 1833 0126 1A40     		ands	r2, r3
 858:Drivers/STM32F0xx_HAL_Driver/Src/stm32f0xx_hal_rcc.c ****     {
 1834              		.loc 1 858 7 view .LVU542
 1835 0128 AA42     		cmp	r2, r5
 1836 012a 1ED1     		bne	.L172
ARM GAS  C:\Users\0.0\AppData\Local\Temp\cceJoyYc.s 			page 58


 1837              	.L161:
 865:Drivers/STM32F0xx_HAL_Driver/Src/stm32f0xx_hal_rcc.c ****   {
 1838              		.loc 1 865 3 is_stmt 1 view .LVU543
 865:Drivers/STM32F0xx_HAL_Driver/Src/stm32f0xx_hal_rcc.c ****   {
 1839              		.loc 1 865 25 is_stmt 0 view .LVU544
 1840 012c 2368     		ldr	r3, [r4]
 865:Drivers/STM32F0xx_HAL_Driver/Src/stm32f0xx_hal_rcc.c ****   {
 1841              		.loc 1 865 5 view .LVU545
 1842 012e 5B07     		lsls	r3, r3, #29
 1843 0130 06D5     		bpl	.L162
 867:Drivers/STM32F0xx_HAL_Driver/Src/stm32f0xx_hal_rcc.c ****     MODIFY_REG(RCC->CFGR, RCC_CFGR_PPRE, RCC_ClkInitStruct->APB1CLKDivider);
 1844              		.loc 1 867 5 is_stmt 1 view .LVU546
 868:Drivers/STM32F0xx_HAL_Driver/Src/stm32f0xx_hal_rcc.c ****   }
 1845              		.loc 1 868 5 view .LVU547
 1846 0132 104A     		ldr	r2, .L185+4
 1847 0134 5368     		ldr	r3, [r2, #4]
 1848 0136 1149     		ldr	r1, .L185+12
 1849 0138 0B40     		ands	r3, r1
 1850 013a E168     		ldr	r1, [r4, #12]
 1851 013c 0B43     		orrs	r3, r1
 1852 013e 5360     		str	r3, [r2, #4]
 1853              	.L162:
 872:Drivers/STM32F0xx_HAL_Driver/Src/stm32f0xx_hal_rcc.c **** 
 1854              		.loc 1 872 3 view .LVU548
 872:Drivers/STM32F0xx_HAL_Driver/Src/stm32f0xx_hal_rcc.c **** 
 1855              		.loc 1 872 21 is_stmt 0 view .LVU549
 1856 0140 FFF7FEFF 		bl	HAL_RCC_GetSysClockFreq
 1857              	.LVL119:
 872:Drivers/STM32F0xx_HAL_Driver/Src/stm32f0xx_hal_rcc.c **** 
 1858              		.loc 1 872 68 discriminator 1 view .LVU550
 1859 0144 0B4B     		ldr	r3, .L185+4
 1860 0146 5A68     		ldr	r2, [r3, #4]
 872:Drivers/STM32F0xx_HAL_Driver/Src/stm32f0xx_hal_rcc.c **** 
 1861              		.loc 1 872 91 discriminator 1 view .LVU551
 1862 0148 1209     		lsrs	r2, r2, #4
 1863 014a 0F23     		movs	r3, #15
 1864 014c 1340     		ands	r3, r2
 872:Drivers/STM32F0xx_HAL_Driver/Src/stm32f0xx_hal_rcc.c **** 
 1865              		.loc 1 872 63 discriminator 1 view .LVU552
 1866 014e 0C4A     		ldr	r2, .L185+16
 1867 0150 D35C     		ldrb	r3, [r2, r3]
 872:Drivers/STM32F0xx_HAL_Driver/Src/stm32f0xx_hal_rcc.c **** 
 1868              		.loc 1 872 47 discriminator 1 view .LVU553
 1869 0152 D840     		lsrs	r0, r0, r3
 872:Drivers/STM32F0xx_HAL_Driver/Src/stm32f0xx_hal_rcc.c **** 
 1870              		.loc 1 872 19 discriminator 1 view .LVU554
 1871 0154 0B4B     		ldr	r3, .L185+20
 1872 0156 1860     		str	r0, [r3]
 875:Drivers/STM32F0xx_HAL_Driver/Src/stm32f0xx_hal_rcc.c ****   
 1873              		.loc 1 875 3 is_stmt 1 view .LVU555
 1874 0158 0020     		movs	r0, #0
 1875 015a FFF7FEFF 		bl	HAL_InitTick
 1876              	.LVL120:
 877:Drivers/STM32F0xx_HAL_Driver/Src/stm32f0xx_hal_rcc.c **** }
 1877              		.loc 1 877 3 view .LVU556
 877:Drivers/STM32F0xx_HAL_Driver/Src/stm32f0xx_hal_rcc.c **** }
 1878              		.loc 1 877 10 is_stmt 0 view .LVU557
ARM GAS  C:\Users\0.0\AppData\Local\Temp\cceJoyYc.s 			page 59


 1879 015e 0020     		movs	r0, #0
 1880              	.L144:
 878:Drivers/STM32F0xx_HAL_Driver/Src/stm32f0xx_hal_rcc.c **** 
 1881              		.loc 1 878 1 view .LVU558
 1882              		@ sp needed
 1883              	.LVL121:
 1884              	.LVL122:
 878:Drivers/STM32F0xx_HAL_Driver/Src/stm32f0xx_hal_rcc.c **** 
 1885              		.loc 1 878 1 view .LVU559
 1886 0160 70BD     		pop	{r4, r5, r6, pc}
 1887              	.LVL123:
 1888              	.L163:
 748:Drivers/STM32F0xx_HAL_Driver/Src/stm32f0xx_hal_rcc.c ****     }
 1889              		.loc 1 748 14 view .LVU560
 1890 0162 0120     		movs	r0, #1
 1891              	.LVL124:
 748:Drivers/STM32F0xx_HAL_Driver/Src/stm32f0xx_hal_rcc.c ****     }
 1892              		.loc 1 748 14 view .LVU561
 1893 0164 FCE7     		b	.L144
 1894              	.LVL125:
 1895              	.L184:
 770:Drivers/STM32F0xx_HAL_Driver/Src/stm32f0xx_hal_rcc.c ****       }
 1896              		.loc 1 770 16 view .LVU562
 1897 0166 0120     		movs	r0, #1
 1898              	.LVL126:
 770:Drivers/STM32F0xx_HAL_Driver/Src/stm32f0xx_hal_rcc.c ****       }
 1899              		.loc 1 770 16 view .LVU563
 1900 0168 FAE7     		b	.L144
 1901              	.LVL127:
 1902              	.L172:
 860:Drivers/STM32F0xx_HAL_Driver/Src/stm32f0xx_hal_rcc.c ****     }
 1903              		.loc 1 860 14 view .LVU564
 1904 016a 0120     		movs	r0, #1
 1905 016c F8E7     		b	.L144
 1906              	.L186:
 1907 016e C046     		.align	2
 1908              	.L185:
 1909 0170 00200240 		.word	1073881088
 1910 0174 00100240 		.word	1073876992
 1911 0178 88130000 		.word	5000
 1912 017c FFF8FFFF 		.word	-1793
 1913 0180 00000000 		.word	AHBPrescTable
 1914 0184 00000000 		.word	SystemCoreClock
 1915              		.cfi_endproc
 1916              	.LFE39:
 1918              		.section	.text.HAL_RCC_GetHCLKFreq,"ax",%progbits
 1919              		.align	1
 1920              		.global	HAL_RCC_GetHCLKFreq
 1921              		.syntax unified
 1922              		.code	16
 1923              		.thumb_func
 1925              	HAL_RCC_GetHCLKFreq:
 1926              	.LFB44:
1129:Drivers/STM32F0xx_HAL_Driver/Src/stm32f0xx_hal_rcc.c **** 
1130:Drivers/STM32F0xx_HAL_Driver/Src/stm32f0xx_hal_rcc.c **** /**
1131:Drivers/STM32F0xx_HAL_Driver/Src/stm32f0xx_hal_rcc.c ****   * @brief  Returns the HCLK frequency     
1132:Drivers/STM32F0xx_HAL_Driver/Src/stm32f0xx_hal_rcc.c ****   * @note   Each time HCLK changes, this function must be called to update the
ARM GAS  C:\Users\0.0\AppData\Local\Temp\cceJoyYc.s 			page 60


1133:Drivers/STM32F0xx_HAL_Driver/Src/stm32f0xx_hal_rcc.c ****   *         right HCLK value. Otherwise, any configuration based on this function will be incorrect
1134:Drivers/STM32F0xx_HAL_Driver/Src/stm32f0xx_hal_rcc.c ****   * 
1135:Drivers/STM32F0xx_HAL_Driver/Src/stm32f0xx_hal_rcc.c ****   * @note   The SystemCoreClock CMSIS variable is used to store System Clock Frequency 
1136:Drivers/STM32F0xx_HAL_Driver/Src/stm32f0xx_hal_rcc.c ****   *         and updated within this function
1137:Drivers/STM32F0xx_HAL_Driver/Src/stm32f0xx_hal_rcc.c ****   * @retval HCLK frequency
1138:Drivers/STM32F0xx_HAL_Driver/Src/stm32f0xx_hal_rcc.c ****   */
1139:Drivers/STM32F0xx_HAL_Driver/Src/stm32f0xx_hal_rcc.c **** uint32_t HAL_RCC_GetHCLKFreq(void)
1140:Drivers/STM32F0xx_HAL_Driver/Src/stm32f0xx_hal_rcc.c **** {
 1927              		.loc 1 1140 1 is_stmt 1 view -0
 1928              		.cfi_startproc
 1929              		@ args = 0, pretend = 0, frame = 0
 1930              		@ frame_needed = 0, uses_anonymous_args = 0
 1931              		@ link register save eliminated.
1141:Drivers/STM32F0xx_HAL_Driver/Src/stm32f0xx_hal_rcc.c ****   return SystemCoreClock;
 1932              		.loc 1 1141 3 view .LVU566
 1933              		.loc 1 1141 10 is_stmt 0 view .LVU567
 1934 0000 014B     		ldr	r3, .L188
 1935              		.loc 1 1141 10 discriminator 1 view .LVU568
 1936 0002 1868     		ldr	r0, [r3]
1142:Drivers/STM32F0xx_HAL_Driver/Src/stm32f0xx_hal_rcc.c **** }
 1937              		.loc 1 1142 1 view .LVU569
 1938              		@ sp needed
 1939 0004 7047     		bx	lr
 1940              	.L189:
 1941 0006 C046     		.align	2
 1942              	.L188:
 1943 0008 00000000 		.word	SystemCoreClock
 1944              		.cfi_endproc
 1945              	.LFE44:
 1947              		.section	.text.HAL_RCC_GetPCLK1Freq,"ax",%progbits
 1948              		.align	1
 1949              		.global	HAL_RCC_GetPCLK1Freq
 1950              		.syntax unified
 1951              		.code	16
 1952              		.thumb_func
 1954              	HAL_RCC_GetPCLK1Freq:
 1955              	.LFB45:
1143:Drivers/STM32F0xx_HAL_Driver/Src/stm32f0xx_hal_rcc.c **** 
1144:Drivers/STM32F0xx_HAL_Driver/Src/stm32f0xx_hal_rcc.c **** /**
1145:Drivers/STM32F0xx_HAL_Driver/Src/stm32f0xx_hal_rcc.c ****   * @brief  Returns the PCLK1 frequency     
1146:Drivers/STM32F0xx_HAL_Driver/Src/stm32f0xx_hal_rcc.c ****   * @note   Each time PCLK1 changes, this function must be called to update the
1147:Drivers/STM32F0xx_HAL_Driver/Src/stm32f0xx_hal_rcc.c ****   *         right PCLK1 value. Otherwise, any configuration based on this function will be incorrec
1148:Drivers/STM32F0xx_HAL_Driver/Src/stm32f0xx_hal_rcc.c ****   * @retval PCLK1 frequency
1149:Drivers/STM32F0xx_HAL_Driver/Src/stm32f0xx_hal_rcc.c ****   */
1150:Drivers/STM32F0xx_HAL_Driver/Src/stm32f0xx_hal_rcc.c **** uint32_t HAL_RCC_GetPCLK1Freq(void)
1151:Drivers/STM32F0xx_HAL_Driver/Src/stm32f0xx_hal_rcc.c **** {
 1956              		.loc 1 1151 1 is_stmt 1 view -0
 1957              		.cfi_startproc
 1958              		@ args = 0, pretend = 0, frame = 0
 1959              		@ frame_needed = 0, uses_anonymous_args = 0
 1960 0000 10B5     		push	{r4, lr}
 1961              	.LCFI7:
 1962              		.cfi_def_cfa_offset 8
 1963              		.cfi_offset 4, -8
 1964              		.cfi_offset 14, -4
1152:Drivers/STM32F0xx_HAL_Driver/Src/stm32f0xx_hal_rcc.c ****   /* Get HCLK source and Compute PCLK1 frequency ---------------------------*/
1153:Drivers/STM32F0xx_HAL_Driver/Src/stm32f0xx_hal_rcc.c ****   return (HAL_RCC_GetHCLKFreq() >> APBPrescTable[(RCC->CFGR & RCC_CFGR_PPRE) >> RCC_CFGR_PPRE_BITNU
ARM GAS  C:\Users\0.0\AppData\Local\Temp\cceJoyYc.s 			page 61


 1965              		.loc 1 1153 3 view .LVU571
 1966              		.loc 1 1153 11 is_stmt 0 view .LVU572
 1967 0002 FFF7FEFF 		bl	HAL_RCC_GetHCLKFreq
 1968              	.LVL128:
 1969              		.loc 1 1153 54 discriminator 1 view .LVU573
 1970 0006 044B     		ldr	r3, .L191
 1971 0008 5A68     		ldr	r2, [r3, #4]
 1972              		.loc 1 1153 78 discriminator 1 view .LVU574
 1973 000a 120A     		lsrs	r2, r2, #8
 1974 000c 0723     		movs	r3, #7
 1975 000e 1340     		ands	r3, r2
 1976              		.loc 1 1153 49 discriminator 1 view .LVU575
 1977 0010 024A     		ldr	r2, .L191+4
 1978 0012 D35C     		ldrb	r3, [r2, r3]
 1979              		.loc 1 1153 33 discriminator 1 view .LVU576
 1980 0014 D840     		lsrs	r0, r0, r3
1154:Drivers/STM32F0xx_HAL_Driver/Src/stm32f0xx_hal_rcc.c **** }    
 1981              		.loc 1 1154 1 view .LVU577
 1982              		@ sp needed
 1983 0016 10BD     		pop	{r4, pc}
 1984              	.L192:
 1985              		.align	2
 1986              	.L191:
 1987 0018 00100240 		.word	1073876992
 1988 001c 00000000 		.word	APBPrescTable
 1989              		.cfi_endproc
 1990              	.LFE45:
 1992              		.section	.text.HAL_RCC_GetOscConfig,"ax",%progbits
 1993              		.align	1
 1994              		.global	HAL_RCC_GetOscConfig
 1995              		.syntax unified
 1996              		.code	16
 1997              		.thumb_func
 1999              	HAL_RCC_GetOscConfig:
 2000              	.LVL129:
 2001              	.LFB46:
1155:Drivers/STM32F0xx_HAL_Driver/Src/stm32f0xx_hal_rcc.c **** 
1156:Drivers/STM32F0xx_HAL_Driver/Src/stm32f0xx_hal_rcc.c **** /**
1157:Drivers/STM32F0xx_HAL_Driver/Src/stm32f0xx_hal_rcc.c ****   * @brief  Configures the RCC_OscInitStruct according to the internal 
1158:Drivers/STM32F0xx_HAL_Driver/Src/stm32f0xx_hal_rcc.c ****   * RCC configuration registers.
1159:Drivers/STM32F0xx_HAL_Driver/Src/stm32f0xx_hal_rcc.c ****   * @param  RCC_OscInitStruct pointer to an RCC_OscInitTypeDef structure that 
1160:Drivers/STM32F0xx_HAL_Driver/Src/stm32f0xx_hal_rcc.c ****   * will be configured.
1161:Drivers/STM32F0xx_HAL_Driver/Src/stm32f0xx_hal_rcc.c ****   * @retval None
1162:Drivers/STM32F0xx_HAL_Driver/Src/stm32f0xx_hal_rcc.c ****   */
1163:Drivers/STM32F0xx_HAL_Driver/Src/stm32f0xx_hal_rcc.c **** void HAL_RCC_GetOscConfig(RCC_OscInitTypeDef  *RCC_OscInitStruct)
1164:Drivers/STM32F0xx_HAL_Driver/Src/stm32f0xx_hal_rcc.c **** {
 2002              		.loc 1 1164 1 is_stmt 1 view -0
 2003              		.cfi_startproc
 2004              		@ args = 0, pretend = 0, frame = 0
 2005              		@ frame_needed = 0, uses_anonymous_args = 0
 2006              		@ link register save eliminated.
1165:Drivers/STM32F0xx_HAL_Driver/Src/stm32f0xx_hal_rcc.c ****   /* Check the parameters */
1166:Drivers/STM32F0xx_HAL_Driver/Src/stm32f0xx_hal_rcc.c ****   assert_param(RCC_OscInitStruct != NULL);
 2007              		.loc 1 1166 3 view .LVU579
1167:Drivers/STM32F0xx_HAL_Driver/Src/stm32f0xx_hal_rcc.c **** 
1168:Drivers/STM32F0xx_HAL_Driver/Src/stm32f0xx_hal_rcc.c ****   /* Set all possible values for the Oscillator type parameter ---------------*/
1169:Drivers/STM32F0xx_HAL_Driver/Src/stm32f0xx_hal_rcc.c ****   RCC_OscInitStruct->OscillatorType = RCC_OSCILLATORTYPE_HSE | RCC_OSCILLATORTYPE_HSI  \
ARM GAS  C:\Users\0.0\AppData\Local\Temp\cceJoyYc.s 			page 62


 2008              		.loc 1 1169 3 view .LVU580
 2009              		.loc 1 1169 37 is_stmt 0 view .LVU581
 2010 0000 1F23     		movs	r3, #31
 2011 0002 0360     		str	r3, [r0]
1170:Drivers/STM32F0xx_HAL_Driver/Src/stm32f0xx_hal_rcc.c ****                   | RCC_OSCILLATORTYPE_LSE | RCC_OSCILLATORTYPE_LSI | RCC_OSCILLATORTYPE_HSI14;
1171:Drivers/STM32F0xx_HAL_Driver/Src/stm32f0xx_hal_rcc.c **** #if defined(RCC_HSI48_SUPPORT)
1172:Drivers/STM32F0xx_HAL_Driver/Src/stm32f0xx_hal_rcc.c ****   RCC_OscInitStruct->OscillatorType |= RCC_OSCILLATORTYPE_HSI48;
 2012              		.loc 1 1172 3 is_stmt 1 view .LVU582
 2013              		.loc 1 1172 37 is_stmt 0 view .LVU583
 2014 0004 2033     		adds	r3, r3, #32
 2015 0006 0360     		str	r3, [r0]
1173:Drivers/STM32F0xx_HAL_Driver/Src/stm32f0xx_hal_rcc.c **** #endif /* RCC_HSI48_SUPPORT */
1174:Drivers/STM32F0xx_HAL_Driver/Src/stm32f0xx_hal_rcc.c **** 
1175:Drivers/STM32F0xx_HAL_Driver/Src/stm32f0xx_hal_rcc.c **** 
1176:Drivers/STM32F0xx_HAL_Driver/Src/stm32f0xx_hal_rcc.c ****   /* Get the HSE configuration -----------------------------------------------*/
1177:Drivers/STM32F0xx_HAL_Driver/Src/stm32f0xx_hal_rcc.c ****   if((RCC->CR &RCC_CR_HSEBYP) == RCC_CR_HSEBYP)
 2016              		.loc 1 1177 3 is_stmt 1 view .LVU584
 2017              		.loc 1 1177 10 is_stmt 0 view .LVU585
 2018 0008 324B     		ldr	r3, .L208
 2019 000a 1B68     		ldr	r3, [r3]
 2020              		.loc 1 1177 5 view .LVU586
 2021 000c 5B03     		lsls	r3, r3, #13
 2022 000e 40D5     		bpl	.L194
1178:Drivers/STM32F0xx_HAL_Driver/Src/stm32f0xx_hal_rcc.c ****   {
1179:Drivers/STM32F0xx_HAL_Driver/Src/stm32f0xx_hal_rcc.c ****     RCC_OscInitStruct->HSEState = RCC_HSE_BYPASS;
 2023              		.loc 1 1179 5 is_stmt 1 view .LVU587
 2024              		.loc 1 1179 33 is_stmt 0 view .LVU588
 2025 0010 0523     		movs	r3, #5
 2026 0012 4360     		str	r3, [r0, #4]
 2027              	.L195:
1180:Drivers/STM32F0xx_HAL_Driver/Src/stm32f0xx_hal_rcc.c ****   }
1181:Drivers/STM32F0xx_HAL_Driver/Src/stm32f0xx_hal_rcc.c ****   else if((RCC->CR &RCC_CR_HSEON) == RCC_CR_HSEON)
1182:Drivers/STM32F0xx_HAL_Driver/Src/stm32f0xx_hal_rcc.c ****   {
1183:Drivers/STM32F0xx_HAL_Driver/Src/stm32f0xx_hal_rcc.c ****     RCC_OscInitStruct->HSEState = RCC_HSE_ON;
1184:Drivers/STM32F0xx_HAL_Driver/Src/stm32f0xx_hal_rcc.c ****   }
1185:Drivers/STM32F0xx_HAL_Driver/Src/stm32f0xx_hal_rcc.c ****   else
1186:Drivers/STM32F0xx_HAL_Driver/Src/stm32f0xx_hal_rcc.c ****   {
1187:Drivers/STM32F0xx_HAL_Driver/Src/stm32f0xx_hal_rcc.c ****     RCC_OscInitStruct->HSEState = RCC_HSE_OFF;
1188:Drivers/STM32F0xx_HAL_Driver/Src/stm32f0xx_hal_rcc.c ****   }
1189:Drivers/STM32F0xx_HAL_Driver/Src/stm32f0xx_hal_rcc.c **** 
1190:Drivers/STM32F0xx_HAL_Driver/Src/stm32f0xx_hal_rcc.c ****   /* Get the HSI configuration -----------------------------------------------*/
1191:Drivers/STM32F0xx_HAL_Driver/Src/stm32f0xx_hal_rcc.c ****   if((RCC->CR &RCC_CR_HSION) == RCC_CR_HSION)
 2028              		.loc 1 1191 3 is_stmt 1 view .LVU589
 2029              		.loc 1 1191 10 is_stmt 0 view .LVU590
 2030 0014 2F4B     		ldr	r3, .L208
 2031 0016 1B68     		ldr	r3, [r3]
 2032              		.loc 1 1191 5 view .LVU591
 2033 0018 DB07     		lsls	r3, r3, #31
 2034 001a 44D5     		bpl	.L197
1192:Drivers/STM32F0xx_HAL_Driver/Src/stm32f0xx_hal_rcc.c ****   {
1193:Drivers/STM32F0xx_HAL_Driver/Src/stm32f0xx_hal_rcc.c ****     RCC_OscInitStruct->HSIState = RCC_HSI_ON;
 2035              		.loc 1 1193 5 is_stmt 1 view .LVU592
 2036              		.loc 1 1193 33 is_stmt 0 view .LVU593
 2037 001c 0123     		movs	r3, #1
 2038 001e C360     		str	r3, [r0, #12]
 2039              	.L198:
1194:Drivers/STM32F0xx_HAL_Driver/Src/stm32f0xx_hal_rcc.c ****   }
ARM GAS  C:\Users\0.0\AppData\Local\Temp\cceJoyYc.s 			page 63


1195:Drivers/STM32F0xx_HAL_Driver/Src/stm32f0xx_hal_rcc.c ****   else
1196:Drivers/STM32F0xx_HAL_Driver/Src/stm32f0xx_hal_rcc.c ****   {
1197:Drivers/STM32F0xx_HAL_Driver/Src/stm32f0xx_hal_rcc.c ****     RCC_OscInitStruct->HSIState = RCC_HSI_OFF;
1198:Drivers/STM32F0xx_HAL_Driver/Src/stm32f0xx_hal_rcc.c ****   }
1199:Drivers/STM32F0xx_HAL_Driver/Src/stm32f0xx_hal_rcc.c ****   
1200:Drivers/STM32F0xx_HAL_Driver/Src/stm32f0xx_hal_rcc.c ****   RCC_OscInitStruct->HSICalibrationValue = (uint32_t)((RCC->CR &RCC_CR_HSITRIM) >> RCC_CR_HSITRIM_B
 2040              		.loc 1 1200 3 is_stmt 1 view .LVU594
 2041              		.loc 1 1200 59 is_stmt 0 view .LVU595
 2042 0020 2C49     		ldr	r1, .L208
 2043 0022 0A68     		ldr	r2, [r1]
 2044              		.loc 1 1200 44 view .LVU596
 2045 0024 D208     		lsrs	r2, r2, #3
 2046 0026 1F23     		movs	r3, #31
 2047 0028 1340     		ands	r3, r2
 2048              		.loc 1 1200 42 view .LVU597
 2049 002a 0361     		str	r3, [r0, #16]
1201:Drivers/STM32F0xx_HAL_Driver/Src/stm32f0xx_hal_rcc.c ****   
1202:Drivers/STM32F0xx_HAL_Driver/Src/stm32f0xx_hal_rcc.c ****   /* Get the LSE configuration -----------------------------------------------*/
1203:Drivers/STM32F0xx_HAL_Driver/Src/stm32f0xx_hal_rcc.c ****   if((RCC->BDCR &RCC_BDCR_LSEBYP) == RCC_BDCR_LSEBYP)
 2050              		.loc 1 1203 3 is_stmt 1 view .LVU598
 2051              		.loc 1 1203 10 is_stmt 0 view .LVU599
 2052 002c 0B6A     		ldr	r3, [r1, #32]
 2053              		.loc 1 1203 5 view .LVU600
 2054 002e 5B07     		lsls	r3, r3, #29
 2055 0030 3CD5     		bpl	.L199
1204:Drivers/STM32F0xx_HAL_Driver/Src/stm32f0xx_hal_rcc.c ****   {
1205:Drivers/STM32F0xx_HAL_Driver/Src/stm32f0xx_hal_rcc.c ****     RCC_OscInitStruct->LSEState = RCC_LSE_BYPASS;
 2056              		.loc 1 1205 5 is_stmt 1 view .LVU601
 2057              		.loc 1 1205 33 is_stmt 0 view .LVU602
 2058 0032 0523     		movs	r3, #5
 2059 0034 8360     		str	r3, [r0, #8]
 2060              	.L200:
1206:Drivers/STM32F0xx_HAL_Driver/Src/stm32f0xx_hal_rcc.c ****   }
1207:Drivers/STM32F0xx_HAL_Driver/Src/stm32f0xx_hal_rcc.c ****   else if((RCC->BDCR &RCC_BDCR_LSEON) == RCC_BDCR_LSEON)
1208:Drivers/STM32F0xx_HAL_Driver/Src/stm32f0xx_hal_rcc.c ****   {
1209:Drivers/STM32F0xx_HAL_Driver/Src/stm32f0xx_hal_rcc.c ****     RCC_OscInitStruct->LSEState = RCC_LSE_ON;
1210:Drivers/STM32F0xx_HAL_Driver/Src/stm32f0xx_hal_rcc.c ****   }
1211:Drivers/STM32F0xx_HAL_Driver/Src/stm32f0xx_hal_rcc.c ****   else
1212:Drivers/STM32F0xx_HAL_Driver/Src/stm32f0xx_hal_rcc.c ****   {
1213:Drivers/STM32F0xx_HAL_Driver/Src/stm32f0xx_hal_rcc.c ****     RCC_OscInitStruct->LSEState = RCC_LSE_OFF;
1214:Drivers/STM32F0xx_HAL_Driver/Src/stm32f0xx_hal_rcc.c ****   }
1215:Drivers/STM32F0xx_HAL_Driver/Src/stm32f0xx_hal_rcc.c ****   
1216:Drivers/STM32F0xx_HAL_Driver/Src/stm32f0xx_hal_rcc.c ****   /* Get the LSI configuration -----------------------------------------------*/
1217:Drivers/STM32F0xx_HAL_Driver/Src/stm32f0xx_hal_rcc.c ****   if((RCC->CSR &RCC_CSR_LSION) == RCC_CSR_LSION)
 2061              		.loc 1 1217 3 is_stmt 1 view .LVU603
 2062              		.loc 1 1217 10 is_stmt 0 view .LVU604
 2063 0036 274B     		ldr	r3, .L208
 2064 0038 5B6A     		ldr	r3, [r3, #36]
 2065              		.loc 1 1217 5 view .LVU605
 2066 003a DB07     		lsls	r3, r3, #31
 2067 003c 40D5     		bpl	.L202
1218:Drivers/STM32F0xx_HAL_Driver/Src/stm32f0xx_hal_rcc.c ****   {
1219:Drivers/STM32F0xx_HAL_Driver/Src/stm32f0xx_hal_rcc.c ****     RCC_OscInitStruct->LSIState = RCC_LSI_ON;
 2068              		.loc 1 1219 5 is_stmt 1 view .LVU606
 2069              		.loc 1 1219 33 is_stmt 0 view .LVU607
 2070 003e 0123     		movs	r3, #1
 2071 0040 C361     		str	r3, [r0, #28]
ARM GAS  C:\Users\0.0\AppData\Local\Temp\cceJoyYc.s 			page 64


 2072              	.L203:
1220:Drivers/STM32F0xx_HAL_Driver/Src/stm32f0xx_hal_rcc.c ****   }
1221:Drivers/STM32F0xx_HAL_Driver/Src/stm32f0xx_hal_rcc.c ****   else
1222:Drivers/STM32F0xx_HAL_Driver/Src/stm32f0xx_hal_rcc.c ****   {
1223:Drivers/STM32F0xx_HAL_Driver/Src/stm32f0xx_hal_rcc.c ****     RCC_OscInitStruct->LSIState = RCC_LSI_OFF;
1224:Drivers/STM32F0xx_HAL_Driver/Src/stm32f0xx_hal_rcc.c ****   }
1225:Drivers/STM32F0xx_HAL_Driver/Src/stm32f0xx_hal_rcc.c ****   
1226:Drivers/STM32F0xx_HAL_Driver/Src/stm32f0xx_hal_rcc.c ****   /* Get the HSI14 configuration -----------------------------------------------*/
1227:Drivers/STM32F0xx_HAL_Driver/Src/stm32f0xx_hal_rcc.c ****   if((RCC->CR2 & RCC_CR2_HSI14ON) == RCC_CR2_HSI14ON)
 2073              		.loc 1 1227 3 is_stmt 1 view .LVU608
 2074              		.loc 1 1227 10 is_stmt 0 view .LVU609
 2075 0042 244B     		ldr	r3, .L208
 2076 0044 5B6B     		ldr	r3, [r3, #52]
 2077              		.loc 1 1227 5 view .LVU610
 2078 0046 DB07     		lsls	r3, r3, #31
 2079 0048 3DD5     		bpl	.L204
1228:Drivers/STM32F0xx_HAL_Driver/Src/stm32f0xx_hal_rcc.c ****   {
1229:Drivers/STM32F0xx_HAL_Driver/Src/stm32f0xx_hal_rcc.c ****     RCC_OscInitStruct->HSI14State = RCC_HSI_ON;
 2080              		.loc 1 1229 5 is_stmt 1 view .LVU611
 2081              		.loc 1 1229 35 is_stmt 0 view .LVU612
 2082 004a 0123     		movs	r3, #1
 2083 004c 4361     		str	r3, [r0, #20]
 2084              	.L205:
1230:Drivers/STM32F0xx_HAL_Driver/Src/stm32f0xx_hal_rcc.c ****   }
1231:Drivers/STM32F0xx_HAL_Driver/Src/stm32f0xx_hal_rcc.c ****   else
1232:Drivers/STM32F0xx_HAL_Driver/Src/stm32f0xx_hal_rcc.c ****   {
1233:Drivers/STM32F0xx_HAL_Driver/Src/stm32f0xx_hal_rcc.c ****     RCC_OscInitStruct->HSI14State = RCC_HSI_OFF;
1234:Drivers/STM32F0xx_HAL_Driver/Src/stm32f0xx_hal_rcc.c ****   }
1235:Drivers/STM32F0xx_HAL_Driver/Src/stm32f0xx_hal_rcc.c **** 
1236:Drivers/STM32F0xx_HAL_Driver/Src/stm32f0xx_hal_rcc.c ****   RCC_OscInitStruct->HSI14CalibrationValue = (uint32_t)((RCC->CR2 & RCC_CR2_HSI14TRIM) >> RCC_HSI14
 2085              		.loc 1 1236 3 is_stmt 1 view .LVU613
 2086              		.loc 1 1236 61 is_stmt 0 view .LVU614
 2087 004e 214A     		ldr	r2, .L208
 2088 0050 516B     		ldr	r1, [r2, #52]
 2089              		.loc 1 1236 46 view .LVU615
 2090 0052 C908     		lsrs	r1, r1, #3
 2091 0054 1F23     		movs	r3, #31
 2092 0056 0B40     		ands	r3, r1
 2093              		.loc 1 1236 44 view .LVU616
 2094 0058 8361     		str	r3, [r0, #24]
1237:Drivers/STM32F0xx_HAL_Driver/Src/stm32f0xx_hal_rcc.c ****   
1238:Drivers/STM32F0xx_HAL_Driver/Src/stm32f0xx_hal_rcc.c **** #if defined(RCC_HSI48_SUPPORT)
1239:Drivers/STM32F0xx_HAL_Driver/Src/stm32f0xx_hal_rcc.c ****   /* Get the HSI48 configuration if any-----------------------------------------*/
1240:Drivers/STM32F0xx_HAL_Driver/Src/stm32f0xx_hal_rcc.c ****   RCC_OscInitStruct->HSI48State = __HAL_RCC_GET_HSI48_STATE();
 2095              		.loc 1 1240 3 is_stmt 1 view .LVU617
 2096              		.loc 1 1240 35 is_stmt 0 view .LVU618
 2097 005a 536B     		ldr	r3, [r2, #52]
 2098 005c 8021     		movs	r1, #128
 2099 005e 4902     		lsls	r1, r1, #9
 2100 0060 0B40     		ands	r3, r1
 2101 0062 591E     		subs	r1, r3, #1
 2102 0064 8B41     		sbcs	r3, r3, r1
 2103              		.loc 1 1240 33 view .LVU619
 2104 0066 0362     		str	r3, [r0, #32]
1241:Drivers/STM32F0xx_HAL_Driver/Src/stm32f0xx_hal_rcc.c **** #endif /* RCC_HSI48_SUPPORT */
1242:Drivers/STM32F0xx_HAL_Driver/Src/stm32f0xx_hal_rcc.c **** 
1243:Drivers/STM32F0xx_HAL_Driver/Src/stm32f0xx_hal_rcc.c ****   /* Get the PLL configuration -----------------------------------------------*/
ARM GAS  C:\Users\0.0\AppData\Local\Temp\cceJoyYc.s 			page 65


1244:Drivers/STM32F0xx_HAL_Driver/Src/stm32f0xx_hal_rcc.c ****   if((RCC->CR &RCC_CR_PLLON) == RCC_CR_PLLON)
 2105              		.loc 1 1244 3 is_stmt 1 view .LVU620
 2106              		.loc 1 1244 10 is_stmt 0 view .LVU621
 2107 0068 1368     		ldr	r3, [r2]
 2108              		.loc 1 1244 5 view .LVU622
 2109 006a DB01     		lsls	r3, r3, #7
 2110 006c 2ED5     		bpl	.L206
1245:Drivers/STM32F0xx_HAL_Driver/Src/stm32f0xx_hal_rcc.c ****   {
1246:Drivers/STM32F0xx_HAL_Driver/Src/stm32f0xx_hal_rcc.c ****     RCC_OscInitStruct->PLL.PLLState = RCC_PLL_ON;
 2111              		.loc 1 1246 5 is_stmt 1 view .LVU623
 2112              		.loc 1 1246 37 is_stmt 0 view .LVU624
 2113 006e 0223     		movs	r3, #2
 2114 0070 4362     		str	r3, [r0, #36]
 2115              	.L207:
1247:Drivers/STM32F0xx_HAL_Driver/Src/stm32f0xx_hal_rcc.c ****   }
1248:Drivers/STM32F0xx_HAL_Driver/Src/stm32f0xx_hal_rcc.c ****   else
1249:Drivers/STM32F0xx_HAL_Driver/Src/stm32f0xx_hal_rcc.c ****   {
1250:Drivers/STM32F0xx_HAL_Driver/Src/stm32f0xx_hal_rcc.c ****     RCC_OscInitStruct->PLL.PLLState = RCC_PLL_OFF;
1251:Drivers/STM32F0xx_HAL_Driver/Src/stm32f0xx_hal_rcc.c ****   }
1252:Drivers/STM32F0xx_HAL_Driver/Src/stm32f0xx_hal_rcc.c ****   RCC_OscInitStruct->PLL.PLLSource = (uint32_t)(RCC->CFGR & RCC_CFGR_PLLSRC);
 2116              		.loc 1 1252 3 is_stmt 1 view .LVU625
 2117              		.loc 1 1252 52 is_stmt 0 view .LVU626
 2118 0072 184B     		ldr	r3, .L208
 2119 0074 5A68     		ldr	r2, [r3, #4]
 2120              		.loc 1 1252 38 view .LVU627
 2121 0076 C021     		movs	r1, #192
 2122 0078 4902     		lsls	r1, r1, #9
 2123 007a 0A40     		ands	r2, r1
 2124              		.loc 1 1252 36 view .LVU628
 2125 007c 8262     		str	r2, [r0, #40]
1253:Drivers/STM32F0xx_HAL_Driver/Src/stm32f0xx_hal_rcc.c ****   RCC_OscInitStruct->PLL.PLLMUL = (uint32_t)(RCC->CFGR & RCC_CFGR_PLLMUL);
 2126              		.loc 1 1253 3 is_stmt 1 view .LVU629
 2127              		.loc 1 1253 49 is_stmt 0 view .LVU630
 2128 007e 5A68     		ldr	r2, [r3, #4]
 2129              		.loc 1 1253 35 view .LVU631
 2130 0080 F021     		movs	r1, #240
 2131 0082 8903     		lsls	r1, r1, #14
 2132 0084 0A40     		ands	r2, r1
 2133              		.loc 1 1253 33 view .LVU632
 2134 0086 C262     		str	r2, [r0, #44]
1254:Drivers/STM32F0xx_HAL_Driver/Src/stm32f0xx_hal_rcc.c ****   RCC_OscInitStruct->PLL.PREDIV = (uint32_t)(RCC->CFGR2 & RCC_CFGR2_PREDIV);
 2135              		.loc 1 1254 3 is_stmt 1 view .LVU633
 2136              		.loc 1 1254 49 is_stmt 0 view .LVU634
 2137 0088 DA6A     		ldr	r2, [r3, #44]
 2138              		.loc 1 1254 35 view .LVU635
 2139 008a 0F23     		movs	r3, #15
 2140 008c 1340     		ands	r3, r2
 2141              		.loc 1 1254 33 view .LVU636
 2142 008e 0363     		str	r3, [r0, #48]
1255:Drivers/STM32F0xx_HAL_Driver/Src/stm32f0xx_hal_rcc.c **** }
 2143              		.loc 1 1255 1 view .LVU637
 2144              		@ sp needed
 2145 0090 7047     		bx	lr
 2146              	.L194:
1181:Drivers/STM32F0xx_HAL_Driver/Src/stm32f0xx_hal_rcc.c ****   {
 2147              		.loc 1 1181 8 is_stmt 1 view .LVU638
1181:Drivers/STM32F0xx_HAL_Driver/Src/stm32f0xx_hal_rcc.c ****   {
ARM GAS  C:\Users\0.0\AppData\Local\Temp\cceJoyYc.s 			page 66


 2148              		.loc 1 1181 15 is_stmt 0 view .LVU639
 2149 0092 104B     		ldr	r3, .L208
 2150 0094 1B68     		ldr	r3, [r3]
1181:Drivers/STM32F0xx_HAL_Driver/Src/stm32f0xx_hal_rcc.c ****   {
 2151              		.loc 1 1181 10 view .LVU640
 2152 0096 DB03     		lsls	r3, r3, #15
 2153 0098 02D5     		bpl	.L196
1183:Drivers/STM32F0xx_HAL_Driver/Src/stm32f0xx_hal_rcc.c ****   }
 2154              		.loc 1 1183 5 is_stmt 1 view .LVU641
1183:Drivers/STM32F0xx_HAL_Driver/Src/stm32f0xx_hal_rcc.c ****   }
 2155              		.loc 1 1183 33 is_stmt 0 view .LVU642
 2156 009a 0123     		movs	r3, #1
 2157 009c 4360     		str	r3, [r0, #4]
 2158 009e B9E7     		b	.L195
 2159              	.L196:
1187:Drivers/STM32F0xx_HAL_Driver/Src/stm32f0xx_hal_rcc.c ****   }
 2160              		.loc 1 1187 5 is_stmt 1 view .LVU643
1187:Drivers/STM32F0xx_HAL_Driver/Src/stm32f0xx_hal_rcc.c ****   }
 2161              		.loc 1 1187 33 is_stmt 0 view .LVU644
 2162 00a0 0023     		movs	r3, #0
 2163 00a2 4360     		str	r3, [r0, #4]
 2164 00a4 B6E7     		b	.L195
 2165              	.L197:
1197:Drivers/STM32F0xx_HAL_Driver/Src/stm32f0xx_hal_rcc.c ****   }
 2166              		.loc 1 1197 5 is_stmt 1 view .LVU645
1197:Drivers/STM32F0xx_HAL_Driver/Src/stm32f0xx_hal_rcc.c ****   }
 2167              		.loc 1 1197 33 is_stmt 0 view .LVU646
 2168 00a6 0023     		movs	r3, #0
 2169 00a8 C360     		str	r3, [r0, #12]
 2170 00aa B9E7     		b	.L198
 2171              	.L199:
1207:Drivers/STM32F0xx_HAL_Driver/Src/stm32f0xx_hal_rcc.c ****   {
 2172              		.loc 1 1207 8 is_stmt 1 view .LVU647
1207:Drivers/STM32F0xx_HAL_Driver/Src/stm32f0xx_hal_rcc.c ****   {
 2173              		.loc 1 1207 15 is_stmt 0 view .LVU648
 2174 00ac 094B     		ldr	r3, .L208
 2175 00ae 1B6A     		ldr	r3, [r3, #32]
1207:Drivers/STM32F0xx_HAL_Driver/Src/stm32f0xx_hal_rcc.c ****   {
 2176              		.loc 1 1207 10 view .LVU649
 2177 00b0 DB07     		lsls	r3, r3, #31
 2178 00b2 02D5     		bpl	.L201
1209:Drivers/STM32F0xx_HAL_Driver/Src/stm32f0xx_hal_rcc.c ****   }
 2179              		.loc 1 1209 5 is_stmt 1 view .LVU650
1209:Drivers/STM32F0xx_HAL_Driver/Src/stm32f0xx_hal_rcc.c ****   }
 2180              		.loc 1 1209 33 is_stmt 0 view .LVU651
 2181 00b4 0123     		movs	r3, #1
 2182 00b6 8360     		str	r3, [r0, #8]
 2183 00b8 BDE7     		b	.L200
 2184              	.L201:
1213:Drivers/STM32F0xx_HAL_Driver/Src/stm32f0xx_hal_rcc.c ****   }
 2185              		.loc 1 1213 5 is_stmt 1 view .LVU652
1213:Drivers/STM32F0xx_HAL_Driver/Src/stm32f0xx_hal_rcc.c ****   }
 2186              		.loc 1 1213 33 is_stmt 0 view .LVU653
 2187 00ba 0023     		movs	r3, #0
 2188 00bc 8360     		str	r3, [r0, #8]
 2189 00be BAE7     		b	.L200
 2190              	.L202:
ARM GAS  C:\Users\0.0\AppData\Local\Temp\cceJoyYc.s 			page 67


1223:Drivers/STM32F0xx_HAL_Driver/Src/stm32f0xx_hal_rcc.c ****   }
 2191              		.loc 1 1223 5 is_stmt 1 view .LVU654
1223:Drivers/STM32F0xx_HAL_Driver/Src/stm32f0xx_hal_rcc.c ****   }
 2192              		.loc 1 1223 33 is_stmt 0 view .LVU655
 2193 00c0 0023     		movs	r3, #0
 2194 00c2 C361     		str	r3, [r0, #28]
 2195 00c4 BDE7     		b	.L203
 2196              	.L204:
1233:Drivers/STM32F0xx_HAL_Driver/Src/stm32f0xx_hal_rcc.c ****   }
 2197              		.loc 1 1233 5 is_stmt 1 view .LVU656
1233:Drivers/STM32F0xx_HAL_Driver/Src/stm32f0xx_hal_rcc.c ****   }
 2198              		.loc 1 1233 35 is_stmt 0 view .LVU657
 2199 00c6 0023     		movs	r3, #0
 2200 00c8 4361     		str	r3, [r0, #20]
 2201 00ca C0E7     		b	.L205
 2202              	.L206:
1250:Drivers/STM32F0xx_HAL_Driver/Src/stm32f0xx_hal_rcc.c ****   }
 2203              		.loc 1 1250 5 is_stmt 1 view .LVU658
1250:Drivers/STM32F0xx_HAL_Driver/Src/stm32f0xx_hal_rcc.c ****   }
 2204              		.loc 1 1250 37 is_stmt 0 view .LVU659
 2205 00cc 0123     		movs	r3, #1
 2206 00ce 4362     		str	r3, [r0, #36]
 2207 00d0 CFE7     		b	.L207
 2208              	.L209:
 2209 00d2 C046     		.align	2
 2210              	.L208:
 2211 00d4 00100240 		.word	1073876992
 2212              		.cfi_endproc
 2213              	.LFE46:
 2215              		.section	.text.HAL_RCC_GetClockConfig,"ax",%progbits
 2216              		.align	1
 2217              		.global	HAL_RCC_GetClockConfig
 2218              		.syntax unified
 2219              		.code	16
 2220              		.thumb_func
 2222              	HAL_RCC_GetClockConfig:
 2223              	.LVL130:
 2224              	.LFB47:
1256:Drivers/STM32F0xx_HAL_Driver/Src/stm32f0xx_hal_rcc.c **** 
1257:Drivers/STM32F0xx_HAL_Driver/Src/stm32f0xx_hal_rcc.c **** /**
1258:Drivers/STM32F0xx_HAL_Driver/Src/stm32f0xx_hal_rcc.c ****   * @brief  Get the RCC_ClkInitStruct according to the internal 
1259:Drivers/STM32F0xx_HAL_Driver/Src/stm32f0xx_hal_rcc.c ****   * RCC configuration registers.
1260:Drivers/STM32F0xx_HAL_Driver/Src/stm32f0xx_hal_rcc.c ****   * @param  RCC_ClkInitStruct pointer to an RCC_ClkInitTypeDef structure that 
1261:Drivers/STM32F0xx_HAL_Driver/Src/stm32f0xx_hal_rcc.c ****   * contains the current clock configuration.
1262:Drivers/STM32F0xx_HAL_Driver/Src/stm32f0xx_hal_rcc.c ****   * @param  pFLatency Pointer on the Flash Latency.
1263:Drivers/STM32F0xx_HAL_Driver/Src/stm32f0xx_hal_rcc.c ****   * @retval None
1264:Drivers/STM32F0xx_HAL_Driver/Src/stm32f0xx_hal_rcc.c ****   */
1265:Drivers/STM32F0xx_HAL_Driver/Src/stm32f0xx_hal_rcc.c **** void HAL_RCC_GetClockConfig(RCC_ClkInitTypeDef  *RCC_ClkInitStruct, uint32_t *pFLatency)
1266:Drivers/STM32F0xx_HAL_Driver/Src/stm32f0xx_hal_rcc.c **** {
 2225              		.loc 1 1266 1 is_stmt 1 view -0
 2226              		.cfi_startproc
 2227              		@ args = 0, pretend = 0, frame = 0
 2228              		@ frame_needed = 0, uses_anonymous_args = 0
 2229              		.loc 1 1266 1 is_stmt 0 view .LVU661
 2230 0000 10B5     		push	{r4, lr}
 2231              	.LCFI8:
 2232              		.cfi_def_cfa_offset 8
ARM GAS  C:\Users\0.0\AppData\Local\Temp\cceJoyYc.s 			page 68


 2233              		.cfi_offset 4, -8
 2234              		.cfi_offset 14, -4
1267:Drivers/STM32F0xx_HAL_Driver/Src/stm32f0xx_hal_rcc.c ****   /* Check the parameters */
1268:Drivers/STM32F0xx_HAL_Driver/Src/stm32f0xx_hal_rcc.c ****   assert_param(RCC_ClkInitStruct != NULL);
 2235              		.loc 1 1268 3 is_stmt 1 view .LVU662
1269:Drivers/STM32F0xx_HAL_Driver/Src/stm32f0xx_hal_rcc.c ****   assert_param(pFLatency != NULL);
 2236              		.loc 1 1269 3 view .LVU663
1270:Drivers/STM32F0xx_HAL_Driver/Src/stm32f0xx_hal_rcc.c **** 
1271:Drivers/STM32F0xx_HAL_Driver/Src/stm32f0xx_hal_rcc.c ****   /* Set all possible values for the Clock type parameter --------------------*/
1272:Drivers/STM32F0xx_HAL_Driver/Src/stm32f0xx_hal_rcc.c ****   RCC_ClkInitStruct->ClockType = RCC_CLOCKTYPE_SYSCLK | RCC_CLOCKTYPE_HCLK | RCC_CLOCKTYPE_PCLK1;
 2237              		.loc 1 1272 3 view .LVU664
 2238              		.loc 1 1272 32 is_stmt 0 view .LVU665
 2239 0002 0723     		movs	r3, #7
 2240 0004 0360     		str	r3, [r0]
1273:Drivers/STM32F0xx_HAL_Driver/Src/stm32f0xx_hal_rcc.c ****   
1274:Drivers/STM32F0xx_HAL_Driver/Src/stm32f0xx_hal_rcc.c ****   /* Get the SYSCLK configuration --------------------------------------------*/ 
1275:Drivers/STM32F0xx_HAL_Driver/Src/stm32f0xx_hal_rcc.c ****   RCC_ClkInitStruct->SYSCLKSource = (uint32_t)(RCC->CFGR & RCC_CFGR_SW);
 2241              		.loc 1 1275 3 is_stmt 1 view .LVU666
 2242              		.loc 1 1275 51 is_stmt 0 view .LVU667
 2243 0006 0A4B     		ldr	r3, .L211
 2244 0008 5C68     		ldr	r4, [r3, #4]
 2245              		.loc 1 1275 37 view .LVU668
 2246 000a 0322     		movs	r2, #3
 2247 000c 2240     		ands	r2, r4
 2248              		.loc 1 1275 35 view .LVU669
 2249 000e 4260     		str	r2, [r0, #4]
1276:Drivers/STM32F0xx_HAL_Driver/Src/stm32f0xx_hal_rcc.c ****   
1277:Drivers/STM32F0xx_HAL_Driver/Src/stm32f0xx_hal_rcc.c ****   /* Get the HCLK configuration ----------------------------------------------*/ 
1278:Drivers/STM32F0xx_HAL_Driver/Src/stm32f0xx_hal_rcc.c ****   RCC_ClkInitStruct->AHBCLKDivider = (uint32_t)(RCC->CFGR & RCC_CFGR_HPRE); 
 2250              		.loc 1 1278 3 is_stmt 1 view .LVU670
 2251              		.loc 1 1278 52 is_stmt 0 view .LVU671
 2252 0010 5C68     		ldr	r4, [r3, #4]
 2253              		.loc 1 1278 38 view .LVU672
 2254 0012 F022     		movs	r2, #240
 2255 0014 2240     		ands	r2, r4
 2256              		.loc 1 1278 36 view .LVU673
 2257 0016 8260     		str	r2, [r0, #8]
1279:Drivers/STM32F0xx_HAL_Driver/Src/stm32f0xx_hal_rcc.c ****   
1280:Drivers/STM32F0xx_HAL_Driver/Src/stm32f0xx_hal_rcc.c ****   /* Get the APB1 configuration ----------------------------------------------*/ 
1281:Drivers/STM32F0xx_HAL_Driver/Src/stm32f0xx_hal_rcc.c ****   RCC_ClkInitStruct->APB1CLKDivider = (uint32_t)(RCC->CFGR & RCC_CFGR_PPRE);   
 2258              		.loc 1 1281 3 is_stmt 1 view .LVU674
 2259              		.loc 1 1281 53 is_stmt 0 view .LVU675
 2260 0018 5B68     		ldr	r3, [r3, #4]
 2261              		.loc 1 1281 39 view .LVU676
 2262 001a E022     		movs	r2, #224
 2263 001c D200     		lsls	r2, r2, #3
 2264 001e 1340     		ands	r3, r2
 2265              		.loc 1 1281 37 view .LVU677
 2266 0020 C360     		str	r3, [r0, #12]
1282:Drivers/STM32F0xx_HAL_Driver/Src/stm32f0xx_hal_rcc.c ****   /* Get the Flash Wait State (Latency) configuration ------------------------*/   
1283:Drivers/STM32F0xx_HAL_Driver/Src/stm32f0xx_hal_rcc.c ****   *pFLatency = (uint32_t)(FLASH->ACR & FLASH_ACR_LATENCY); 
 2267              		.loc 1 1283 3 is_stmt 1 view .LVU678
